---
triple:          'arm64-apple-darwin'
binary-path:     '/Users/rohakdebnath/Desktop/Cpp /USACO/thegreatrevegetation'
relocations:
  - { offsetInCU: 0x4A, offset: 0x4A, size: 0x8, addend: 0x0, symName: _adj, symObjAddr: 0x428A0, symBinAddr: 0x10000C000, symSize: 0x0 }
  - { offsetInCU: 0x6CD5, offset: 0x6CD5, size: 0x8, addend: 0x0, symName: __ZNSt3__16copy_nB7v160006IPKcmPcEENS_9enable_ifIXsr33__is_cpp17_random_access_iteratorIT_EE5valueET1_E4typeES5_T0_S6_, symObjAddr: 0x1858, symBinAddr: 0x100002048, symSize: 0x44 }
  - { offsetInCU: 0x70F3, offset: 0x70F3, size: 0x8, addend: 0x0, symName: __ZNSt3__17advanceB7v160006IPNS_6vectorINS_4pairIiiEENS_9allocatorIS3_EEEEllvEEvRT_T0_, symObjAddr: 0x44C8, symBinAddr: 0x100004CB8, symSize: 0x50 }
  - { offsetInCU: 0x7373, offset: 0x7373, size: 0x8, addend: 0x0, symName: __ZNSt3__17advanceB7v160006INS_16reverse_iteratorIPNS_6vectorINS_4pairIiiEENS_9allocatorIS4_EEEEEEllvEEvRT_T0_, symObjAddr: 0x48C8, symBinAddr: 0x1000050B8, symSize: 0x50 }
  - { offsetInCU: 0x7710, offset: 0x7710, size: 0x8, addend: 0x0, symName: __ZNSt3__17advanceB7v160006IPNS_4pairIiiEEllvEEvRT_T0_, symObjAddr: 0x5B10, symBinAddr: 0x100006300, symSize: 0x50 }
  - { offsetInCU: 0x7990, offset: 0x7990, size: 0x8, addend: 0x0, symName: __ZNSt3__17advanceB7v160006INS_16reverse_iteratorIPNS_4pairIiiEEEEllvEEvRT_T0_, symObjAddr: 0x5EF4, symBinAddr: 0x1000066E4, symSize: 0x50 }
  - { offsetInCU: 0x7F87, offset: 0x7F87, size: 0x8, addend: 0x0, symName: __ZNSt3__124__put_character_sequenceB7v160006IcNS_11char_traitsIcEEEERNS_13basic_ostreamIT_T0_EES7_PKS4_m, symObjAddr: 0x6464, symBinAddr: 0x100006C54, symSize: 0x1EC }
  - { offsetInCU: 0x9844, offset: 0x9844, size: 0x8, addend: 0x0, symName: __ZNSt3__1plB7v160006IcNS_11char_traitsIcEENS_9allocatorIcEEEENS_12basic_stringIT_T0_T1_EERKS9_PKS6_, symObjAddr: 0x178, symBinAddr: 0x100000968, symSize: 0x11C }
  - { offsetInCU: 0x98E5, offset: 0x98E5, size: 0x8, addend: 0x0, symName: __ZNSt3__1neB7v160006IPNS_4pairIiiEEEEbRKNS_11__wrap_iterIT_EES8_, symObjAddr: 0x5C4, symBinAddr: 0x100000DB4, symSize: 0x34 }
  - { offsetInCU: 0x9928, offset: 0x9928, size: 0x8, addend: 0x0, symName: __ZNSt3__1rsB7v160006IcNS_11char_traitsIcEEEERNS_13basic_istreamIT_T0_EES7_RS4_, symObjAddr: 0x9B8, symBinAddr: 0x1000011A8, symSize: 0x190 }
  - { offsetInCU: 0x99AA, offset: 0x99AA, size: 0x8, addend: 0x0, symName: __ZNSt3__1lsB7v160006INS_11char_traitsIcEEEERNS_13basic_ostreamIcT_EES6_PKc, symObjAddr: 0xBF0, symBinAddr: 0x1000013E0, symSize: 0x48 }
  - { offsetInCU: 0x99F0, offset: 0x99F0, size: 0x8, addend: 0x0, symName: __ZNSt3__1lsB7v160006INS_11char_traitsIcEEEERNS_13basic_ostreamIcT_EES6_c, symObjAddr: 0xC38, symBinAddr: 0x100001428, symSize: 0x34 }
  - { offsetInCU: 0x9A36, offset: 0x9A36, size: 0x8, addend: 0x0, symName: __ZNSt3__112__to_addressB7v160006IcEEPT_S2_, symObjAddr: 0xE30, symBinAddr: 0x100001620, symSize: 0x14 }
  - { offsetInCU: 0x9A6B, offset: 0x9A6B, size: 0x8, addend: 0x0, symName: __ZNSt3__118__constexpr_strlenB7v160006EPKc, symObjAddr: 0xF60, symBinAddr: 0x100001750, symSize: 0x24 }
  - { offsetInCU: 0x9A97, offset: 0x9A97, size: 0x8, addend: 0x0, symName: __ZNSt3__119__debug_db_insert_cB7v160006INS_12basic_stringIcNS_11char_traitsIcEENS_9allocatorIcEEEEEEvPT_, symObjAddr: 0x148C, symBinAddr: 0x100001C7C, symSize: 0x10 }
  - { offsetInCU: 0x9CB4, offset: 0x9CB4, size: 0x8, addend: 0x0, symName: __ZNSt3__120__throw_length_errorB7v160006EPKc, symObjAddr: 0x154C, symBinAddr: 0x100001D3C, symSize: 0x64 }
  - { offsetInCU: 0x9CDC, offset: 0x9CDC, size: 0x8, addend: 0x0, symName: __ZNSt3__117__libcpp_allocateB7v160006Emm, symObjAddr: 0x16EC, symBinAddr: 0x100001EDC, symSize: 0x60 }
  - { offsetInCU: 0x9D36, offset: 0x9D36, size: 0x8, addend: 0x0, symName: __ZNSt3__124__is_overaligned_for_newB7v160006Em, symObjAddr: 0x174C, symBinAddr: 0x100001F3C, symSize: 0x20 }
  - { offsetInCU: 0x9D64, offset: 0x9D64, size: 0x8, addend: 0x0, symName: __ZNSt3__121__libcpp_operator_newB7v160006IJmSt11align_val_tEEEPvDpT_, symObjAddr: 0x176C, symBinAddr: 0x100001F5C, symSize: 0x2C }
  - { offsetInCU: 0x9DB1, offset: 0x9DB1, size: 0x8, addend: 0x0, symName: __ZNSt3__121__libcpp_operator_newB7v160006IJmEEEPvDpT_, symObjAddr: 0x1798, symBinAddr: 0x100001F88, symSize: 0x24 }
  - { offsetInCU: 0x9DEA, offset: 0x9DEA, size: 0x8, addend: 0x0, symName: __ZNSt3__14copyB7v160006IPKcPcEET0_T_S5_S4_, symObjAddr: 0x189C, symBinAddr: 0x10000208C, symSize: 0x40 }
  - { offsetInCU: 0x9E44, offset: 0x9E44, size: 0x8, addend: 0x0, symName: __ZNSt3__16__copyB7v160006INS_17_ClassicAlgPolicyEPKcS3_PcEENS_4pairIT0_T2_EES6_T1_S7_, symObjAddr: 0x18DC, symBinAddr: 0x1000020CC, symSize: 0x44 }
  - { offsetInCU: 0x9EB0, offset: 0x9EB0, size: 0x8, addend: 0x0, symName: __ZNSt3__123__dispatch_copy_or_moveB7v160006INS_17_ClassicAlgPolicyENS_11__copy_loopIS1_EENS_14__copy_trivialEPKcS6_PcEENS_4pairIT2_T4_EES9_T3_SA_, symObjAddr: 0x1920, symBinAddr: 0x100002110, symSize: 0x44 }
  - { offsetInCU: 0x9F2E, offset: 0x9F2E, size: 0x8, addend: 0x0, symName: __ZNSt3__121__unwrap_and_dispatchB7v160006INS_10__overloadINS_11__copy_loopINS_17_ClassicAlgPolicyEEENS_14__copy_trivialEEEPKcS8_PcLi0EEENS_4pairIT0_T2_EESB_T1_SC_, symObjAddr: 0x1964, symBinAddr: 0x100002154, symSize: 0xB4 }
  - { offsetInCU: 0x9FBC, offset: 0x9FBC, size: 0x8, addend: 0x0, symName: __ZNSt3__114__unwrap_rangeB7v160006IPKcS2_EEDaT_T0_, symObjAddr: 0x1A18, symBinAddr: 0x100002208, symSize: 0x3C }
  - { offsetInCU: 0xA19E, offset: 0xA19E, size: 0x8, addend: 0x0, symName: __ZNSt3__113__unwrap_iterB7v160006IPcNS_18__unwrap_iter_implIS1_Lb1EEELi0EEEDTclsrT0_8__unwrapclsr3stdE7declvalIT_EEEES5_, symObjAddr: 0x1A9C, symBinAddr: 0x10000228C, symSize: 0x24 }
  - { offsetInCU: 0xA1E2, offset: 0xA1E2, size: 0x8, addend: 0x0, symName: __ZNSt3__19make_pairB7v160006IPKcPcEENS_4pairINS_18__unwrap_ref_decayIT_E4typeENS5_IT0_E4typeEEEOS6_OS9_, symObjAddr: 0x1AC0, symBinAddr: 0x1000022B0, symSize: 0x38 }
  - { offsetInCU: 0xA231, offset: 0xA231, size: 0x8, addend: 0x0, symName: __ZNSt3__114__rewrap_rangeB7v160006IPKcS2_S2_EET0_S3_T1_, symObjAddr: 0x1AF8, symBinAddr: 0x1000022E8, symSize: 0x2C }
  - { offsetInCU: 0xA286, offset: 0xA286, size: 0x8, addend: 0x0, symName: __ZNSt3__113__rewrap_iterB7v160006IPcS1_NS_18__unwrap_iter_implIS1_Lb1EEEEET_S4_T0_, symObjAddr: 0x1B24, symBinAddr: 0x100002314, symSize: 0x3C }
  - { offsetInCU: 0xA444, offset: 0xA444, size: 0x8, addend: 0x0, symName: __ZNSt3__113__unwrap_iterB7v160006IPKcNS_18__unwrap_iter_implIS2_Lb1EEELi0EEEDTclsrT0_8__unwrapclsr3stdE7declvalIT_EEEES6_, symObjAddr: 0x1BB8, symBinAddr: 0x1000023A8, symSize: 0x24 }
  - { offsetInCU: 0xA4DB, offset: 0xA4DB, size: 0x8, addend: 0x0, symName: __ZNSt3__112__to_addressB7v160006IKcEEPT_S3_, symObjAddr: 0x1C3C, symBinAddr: 0x10000242C, symSize: 0x14 }
  - { offsetInCU: 0xA510, offset: 0xA510, size: 0x8, addend: 0x0, symName: __ZNSt3__119__copy_trivial_implB7v160006IKccEENS_4pairIPT_PT0_EES4_S4_S6_, symObjAddr: 0x1C84, symBinAddr: 0x100002474, symSize: 0x7C }
  - { offsetInCU: 0xA578, offset: 0xA578, size: 0x8, addend: 0x0, symName: __ZNSt3__19make_pairB7v160006IRPKcPcEENS_4pairINS_18__unwrap_ref_decayIT_E4typeENS6_IT0_E4typeEEEOS7_OSA_, symObjAddr: 0x1D00, symBinAddr: 0x1000024F0, symSize: 0x38 }
  - { offsetInCU: 0xA61A, offset: 0xA61A, size: 0x8, addend: 0x0, symName: __ZNSt3__113__rewrap_iterB7v160006IPKcS2_NS_18__unwrap_iter_implIS2_Lb1EEEEET_S5_T0_, symObjAddr: 0x1E68, symBinAddr: 0x100002658, symSize: 0x3C }
  - { offsetInCU: 0xA6A2, offset: 0xA6A2, size: 0x8, addend: 0x0, symName: __ZNSt3__16fill_nB7v160006IPcmcEET_S2_T0_RKT1_, symObjAddr: 0x1FEC, symBinAddr: 0x1000027DC, symSize: 0x44 }
  - { offsetInCU: 0xA705, offset: 0xA705, size: 0x8, addend: 0x0, symName: __ZNSt3__18__fill_nB7v160006IPcmcEET_S2_T0_RKT1_, symObjAddr: 0x2030, symBinAddr: 0x100002820, symSize: 0x64 }
  - { offsetInCU: 0xA768, offset: 0xA768, size: 0x8, addend: 0x0, symName: __ZNSt3__121__convert_to_integralB7v160006Em, symObjAddr: 0x2094, symBinAddr: 0x100002884, symSize: 0x14 }
  - { offsetInCU: 0xA794, offset: 0xA794, size: 0x8, addend: 0x0, symName: __ZNSt3__118__debug_db_erase_cB7v160006INS_6vectorINS1_INS_4pairIiiEENS_9allocatorIS3_EEEENS4_IS6_EEEEEEvPT_, symObjAddr: 0x22B0, symBinAddr: 0x100002AA0, symSize: 0x10 }
  - { offsetInCU: 0xA7C5, offset: 0xA7C5, size: 0x8, addend: 0x0, symName: __ZNSt3__112__to_addressB7v160006INS_6vectorINS_4pairIiiEENS_9allocatorIS3_EEEEEEPT_S8_, symObjAddr: 0x23F4, symBinAddr: 0x100002BE4, symSize: 0x14 }
  - { offsetInCU: 0xA7FA, offset: 0xA7FA, size: 0x8, addend: 0x0, symName: __ZNSt3__110destroy_atB7v160006INS_6vectorINS_4pairIiiEENS_9allocatorIS3_EEEELi0EEEvPT_, symObjAddr: 0x24BC, symBinAddr: 0x100002CAC, symSize: 0x24 }
  - { offsetInCU: 0xA831, offset: 0xA831, size: 0x8, addend: 0x0, symName: __ZNSt3__112__destroy_atB7v160006INS_6vectorINS_4pairIiiEENS_9allocatorIS3_EEEELi0EEEvPT_, symObjAddr: 0x24E0, symBinAddr: 0x100002CD0, symSize: 0x24 }
  - { offsetInCU: 0xA868, offset: 0xA868, size: 0x8, addend: 0x0, symName: __ZNSt3__118__debug_db_erase_cB7v160006INS_6vectorINS_4pairIiiEENS_9allocatorIS3_EEEEEEvPT_, symObjAddr: 0x271C, symBinAddr: 0x100002F0C, symSize: 0x10 }
  - { offsetInCU: 0xA899, offset: 0xA899, size: 0x8, addend: 0x0, symName: __ZNSt3__112__to_addressB7v160006INS_4pairIiiEEEEPT_S4_, symObjAddr: 0x2860, symBinAddr: 0x100003050, symSize: 0x14 }
  - { offsetInCU: 0xA8CE, offset: 0xA8CE, size: 0x8, addend: 0x0, symName: __ZNSt3__110destroy_atB7v160006INS_4pairIiiEELi0EEEvPT_, symObjAddr: 0x2928, symBinAddr: 0x100003118, symSize: 0x24 }
  - { offsetInCU: 0xA905, offset: 0xA905, size: 0x8, addend: 0x0, symName: __ZNSt3__112__destroy_atB7v160006INS_4pairIiiEELi0EEEvPT_, symObjAddr: 0x294C, symBinAddr: 0x10000313C, symSize: 0x10 }
  - { offsetInCU: 0xA93C, offset: 0xA93C, size: 0x8, addend: 0x0, symName: __ZNSt3__119__libcpp_deallocateB7v160006EPvmm, symObjAddr: 0x299C, symBinAddr: 0x10000318C, symSize: 0x60 }
  - { offsetInCU: 0xA9A1, offset: 0xA9A1, size: 0x8, addend: 0x0, symName: __ZNSt3__127__do_deallocate_handle_sizeB7v160006IJSt11align_val_tEEEvPvmDpT_, symObjAddr: 0x29FC, symBinAddr: 0x1000031EC, symSize: 0x30 }
  - { offsetInCU: 0xA9F4, offset: 0xA9F4, size: 0x8, addend: 0x0, symName: __ZNSt3__127__do_deallocate_handle_sizeB7v160006IJEEEvPvmDpT_, symObjAddr: 0x2A2C, symBinAddr: 0x10000321C, symSize: 0x28 }
  - { offsetInCU: 0xAA32, offset: 0xAA32, size: 0x8, addend: 0x0, symName: __ZNSt3__124__libcpp_operator_deleteB7v160006IJPvSt11align_val_tEEEvDpT_, symObjAddr: 0x2A54, symBinAddr: 0x100003244, symSize: 0x2C }
  - { offsetInCU: 0xAA7B, offset: 0xAA7B, size: 0x8, addend: 0x0, symName: __ZNSt3__124__libcpp_operator_deleteB7v160006IJPvEEEvDpT_, symObjAddr: 0x2A80, symBinAddr: 0x100003270, symSize: 0x24 }
  - { offsetInCU: 0xAAB0, offset: 0xAAB0, size: 0x8, addend: 0x0, symName: __ZNSt3__1eqB7v160006IPNS_4pairIiiEEEEbRKNS_11__wrap_iterIT_EES8_, symObjAddr: 0x2D70, symBinAddr: 0x100003560, symSize: 0x48 }
  - { offsetInCU: 0xAB18, offset: 0xAB18, size: 0x8, addend: 0x0, symName: __ZNSt3__112construct_atB7v160006INS_6vectorINS_4pairIiiEENS_9allocatorIS3_EEEEJEPS6_EEPT_S9_DpOT0_, symObjAddr: 0x345C, symBinAddr: 0x100003C4C, symSize: 0x34 }
  - { offsetInCU: 0xAB74, offset: 0xAB74, size: 0x8, addend: 0x0, symName: __ZNSt3__119__debug_db_insert_cB7v160006INS_6vectorINS_4pairIiiEENS_9allocatorIS3_EEEEEEvPT_, symObjAddr: 0x3550, symBinAddr: 0x100003D40, symSize: 0x10 }
  - { offsetInCU: 0xABA5, offset: 0xABA5, size: 0x8, addend: 0x0, symName: __ZNSt3__13maxB7v160006ImEERKT_S3_S3_, symObjAddr: 0x36C4, symBinAddr: 0x100003EB4, symSize: 0x2C }
  - { offsetInCU: 0xABE8, offset: 0xABE8, size: 0x8, addend: 0x0, symName: __ZNSt3__13minB7v160006ImEERKT_S3_S3_, symObjAddr: 0x36F0, symBinAddr: 0x100003EE0, symSize: 0x2C }
  - { offsetInCU: 0xAE15, offset: 0xAE15, size: 0x8, addend: 0x0, symName: __ZNSt3__13minB7v160006ImNS_6__lessImmEEEERKT_S5_S5_T0_, symObjAddr: 0x3780, symBinAddr: 0x100003F70, symSize: 0x54 }
  - { offsetInCU: 0xAEAA, offset: 0xAEAA, size: 0x8, addend: 0x0, symName: __ZNSt3__13maxB7v160006ImNS_6__lessImmEEEERKT_S5_S5_T0_, symObjAddr: 0x3848, symBinAddr: 0x100004038, symSize: 0x54 }
  - { offsetInCU: 0xAF04, offset: 0xAF04, size: 0x8, addend: 0x0, symName: __ZNSt3__119__allocate_at_leastB7v160006INS_9allocatorINS_6vectorINS_4pairIiiEENS1_IS4_EEEEEEEEDaRT_m, symObjAddr: 0x39B8, symBinAddr: 0x1000041A8, symSize: 0x3C }
  - { offsetInCU: 0xAF47, offset: 0xAF47, size: 0x8, addend: 0x0, symName: __ZNSt3__117allocate_at_leastB7v160006INS_9allocatorINS_6vectorINS_4pairIiiEENS1_IS4_EEEEEEEENS_17allocation_resultINS_16allocator_traitsIT_E7pointerEEERSA_m, symObjAddr: 0x3AC8, symBinAddr: 0x1000042B8, symSize: 0x3C }
  - { offsetInCU: 0xAF8A, offset: 0xAF8A, size: 0x8, addend: 0x0, symName: __ZNSt3__142__uninitialized_allocator_move_if_noexceptB7v160006INS_9allocatorINS_6vectorINS_4pairIiiEENS1_IS4_EEEEEENS_16reverse_iteratorIPS6_EESA_SA_EET2_RT_T0_T1_SB_, symObjAddr: 0x3CD8, symBinAddr: 0x1000044C8, symSize: 0x12C }
  - { offsetInCU: 0xB02A, offset: 0xB02A, size: 0x8, addend: 0x0, symName: __ZNSt3__14swapB7v160006IPNS_6vectorINS_4pairIiiEENS_9allocatorIS3_EEEEEENS_9enable_ifIXaasr21is_move_constructibleIT_EE5valuesr18is_move_assignableIS9_EE5valueEvE4typeERS9_SC_, symObjAddr: 0x3E50, symBinAddr: 0x100004640, symSize: 0x3C }
  - { offsetInCU: 0xB07B, offset: 0xB07B, size: 0x8, addend: 0x0, symName: __ZNSt3__125__debug_db_invalidate_allB7v160006INS_6vectorINS1_INS_4pairIiiEENS_9allocatorIS3_EEEENS4_IS6_EEEEEEvPT_, symObjAddr: 0x3F54, symBinAddr: 0x100004744, symSize: 0x10 }
  - { offsetInCU: 0xB0AC, offset: 0xB0AC, size: 0x8, addend: 0x0, symName: __ZNSt3__122__make_exception_guardB7v160006INS_29_AllocatorDestroyRangeReverseINS_9allocatorINS_6vectorINS_4pairIiiEENS2_IS5_EEEEEENS_16reverse_iteratorIPS7_EEEEEENS_28__exception_guard_exceptionsIT_EESE_, symObjAddr: 0x3F64, symBinAddr: 0x100004754, symSize: 0x4C }
  - { offsetInCU: 0xB0E2, offset: 0xB0E2, size: 0x8, addend: 0x0, symName: __ZNSt3__1neB7v160006IPNS_6vectorINS_4pairIiiEENS_9allocatorIS3_EEEES7_EEbRKNS_16reverse_iteratorIT_EERKNS8_IT0_EE, symObjAddr: 0x3FF4, symBinAddr: 0x1000047E4, symSize: 0x48 }
  - { offsetInCU: 0xB12E, offset: 0xB12E, size: 0x8, addend: 0x0, symName: __ZNSt3__112__to_addressB7v160006INS_16reverse_iteratorIPNS_6vectorINS_4pairIiiEENS_9allocatorIS4_EEEEEEvEENS_5decayIDTclsr19__to_address_helperIT_EE6__callclsr3stdE7declvalIRKSB_EEEEE4typeESD_, symObjAddr: 0x406C, symBinAddr: 0x10000485C, symSize: 0x24 }
  - { offsetInCU: 0xB164, offset: 0xB164, size: 0x8, addend: 0x0, symName: __ZNSt3__112construct_atB7v160006INS_6vectorINS_4pairIiiEENS_9allocatorIS3_EEEEJS6_EPS6_EEPT_S9_DpOT0_, symObjAddr: 0x41BC, symBinAddr: 0x1000049AC, symSize: 0x3C }
  - { offsetInCU: 0xB1D4, offset: 0xB1D4, size: 0x8, addend: 0x0, symName: __ZNSt3__115__debug_db_swapB7v160006INS_6vectorINS_4pairIiiEENS_9allocatorIS3_EEEEEEvPT_S8_, symObjAddr: 0x4344, symBinAddr: 0x100004B34, symSize: 0x14 }
  - { offsetInCU: 0xB23C, offset: 0xB23C, size: 0x8, addend: 0x0, symName: __ZNSt3__14prevB7v160006IPNS_6vectorINS_4pairIiiEENS_9allocatorIS3_EEEEEENS_9enable_ifIXsr25__is_cpp17_input_iteratorIT_EE5valueES9_E4typeES9_NS_15iterator_traitsIS9_E15difference_typeE, symObjAddr: 0x4478, symBinAddr: 0x100004C68, symSize: 0x50 }
  - { offsetInCU: 0xB27F, offset: 0xB27F, size: 0x8, addend: 0x0, symName: __ZNSt3__121__convert_to_integralB7v160006El, symObjAddr: 0x4518, symBinAddr: 0x100004D08, symSize: 0x14 }
  - { offsetInCU: 0xB2AB, offset: 0xB2AB, size: 0x8, addend: 0x0, symName: __ZNSt3__19__advanceB7v160006IPNS_6vectorINS_4pairIiiEENS_9allocatorIS3_EEEEEEvRT_NS_15iterator_traitsIS8_E15difference_typeENS_26random_access_iterator_tagE, symObjAddr: 0x452C, symBinAddr: 0x100004D1C, symSize: 0x30 }
  - { offsetInCU: 0xB2F4, offset: 0xB2F4, size: 0x8, addend: 0x0, symName: __ZNSt3__119__allocator_destroyB7v160006INS_9allocatorINS_6vectorINS_4pairIiiEENS1_IS4_EEEEEENS_16reverse_iteratorINS8_IPS6_EEEESB_EEvRT_T0_T1_, symObjAddr: 0x4660, symBinAddr: 0x100004E50, symSize: 0x70 }
  - { offsetInCU: 0xB359, offset: 0xB359, size: 0x8, addend: 0x0, symName: __ZNSt3__1neB7v160006INS_16reverse_iteratorIPNS_6vectorINS_4pairIiiEENS_9allocatorIS4_EEEEEES9_EEbRKNS1_IT_EERKNS1_IT0_EE, symObjAddr: 0x470C, symBinAddr: 0x100004EFC, symSize: 0x60 }
  - { offsetInCU: 0xB3A5, offset: 0xB3A5, size: 0x8, addend: 0x0, symName: __ZNSt3__112__to_addressB7v160006INS_16reverse_iteratorINS1_IPNS_6vectorINS_4pairIiiEENS_9allocatorIS4_EEEEEEEEvEENS_5decayIDTclsr19__to_address_helperIT_EE6__callclsr3stdE7declvalIRKSC_EEEEE4typeESE_, symObjAddr: 0x476C, symBinAddr: 0x100004F5C, symSize: 0x24 }
  - { offsetInCU: 0xB404, offset: 0xB404, size: 0x8, addend: 0x0, symName: __ZNSt3__14prevB7v160006INS_16reverse_iteratorIPNS_6vectorINS_4pairIiiEENS_9allocatorIS4_EEEEEEEENS_9enable_ifIXsr25__is_cpp17_input_iteratorIT_EE5valueESB_E4typeESB_NS_15iterator_traitsISB_E15difference_typeE, symObjAddr: 0x4868, symBinAddr: 0x100005058, symSize: 0x60 }
  - { offsetInCU: 0xB447, offset: 0xB447, size: 0x8, addend: 0x0, symName: __ZNSt3__19__advanceB7v160006INS_16reverse_iteratorIPNS_6vectorINS_4pairIiiEENS_9allocatorIS4_EEEEEEEEvRT_NS_15iterator_traitsISA_E15difference_typeENS_26random_access_iterator_tagE, symObjAddr: 0x4918, symBinAddr: 0x100005108, symSize: 0x2C }
  - { offsetInCU: 0xB4B5, offset: 0xB4B5, size: 0x8, addend: 0x0, symName: __ZNSt3__112construct_atB7v160006INS_4pairIiiEEJS2_EPS2_EEPT_S5_DpOT0_, symObjAddr: 0x4EFC, symBinAddr: 0x1000056EC, symSize: 0x2C }
  - { offsetInCU: 0xB525, offset: 0xB525, size: 0x8, addend: 0x0, symName: __ZNSt3__119__allocate_at_leastB7v160006INS_9allocatorINS_4pairIiiEEEEEEDaRT_m, symObjAddr: 0x5398, symBinAddr: 0x100005B88, symSize: 0x3C }
  - { offsetInCU: 0xB568, offset: 0xB568, size: 0x8, addend: 0x0, symName: __ZNSt3__117allocate_at_leastB7v160006INS_9allocatorINS_4pairIiiEEEEEENS_17allocation_resultINS_16allocator_traitsIT_E7pointerEEERS7_m, symObjAddr: 0x548C, symBinAddr: 0x100005C7C, symSize: 0x3C }
  - { offsetInCU: 0xB5AB, offset: 0xB5AB, size: 0x8, addend: 0x0, symName: __ZNSt3__142__uninitialized_allocator_move_if_noexceptB7v160006INS_9allocatorINS_4pairIiiEEEENS_16reverse_iteratorIPS3_EES7_S7_EET2_RT_T0_T1_S8_, symObjAddr: 0x55C4, symBinAddr: 0x100005DB4, symSize: 0x12C }
  - { offsetInCU: 0xB64B, offset: 0xB64B, size: 0x8, addend: 0x0, symName: __ZNSt3__14swapB7v160006IPNS_4pairIiiEEEENS_9enable_ifIXaasr21is_move_constructibleIT_EE5valuesr18is_move_assignableIS5_EE5valueEvE4typeERS5_S8_, symObjAddr: 0x573C, symBinAddr: 0x100005F2C, symSize: 0x3C }
  - { offsetInCU: 0xB69C, offset: 0xB69C, size: 0x8, addend: 0x0, symName: __ZNSt3__125__debug_db_invalidate_allB7v160006INS_6vectorINS_4pairIiiEENS_9allocatorIS3_EEEEEEvPT_, symObjAddr: 0x5824, symBinAddr: 0x100006014, symSize: 0x10 }
  - { offsetInCU: 0xB6CD, offset: 0xB6CD, size: 0x8, addend: 0x0, symName: __ZNSt3__122__make_exception_guardB7v160006INS_29_AllocatorDestroyRangeReverseINS_9allocatorINS_4pairIiiEEEENS_16reverse_iteratorIPS4_EEEEEENS_28__exception_guard_exceptionsIT_EESB_, symObjAddr: 0x5834, symBinAddr: 0x100006024, symSize: 0x4C }
  - { offsetInCU: 0xB703, offset: 0xB703, size: 0x8, addend: 0x0, symName: __ZNSt3__1neB7v160006IPNS_4pairIiiEES3_EEbRKNS_16reverse_iteratorIT_EERKNS4_IT0_EE, symObjAddr: 0x58C4, symBinAddr: 0x1000060B4, symSize: 0x48 }
  - { offsetInCU: 0xB74F, offset: 0xB74F, size: 0x8, addend: 0x0, symName: __ZNSt3__112__to_addressB7v160006INS_16reverse_iteratorIPNS_4pairIiiEEEEvEENS_5decayIDTclsr19__to_address_helperIT_EE6__callclsr3stdE7declvalIRKS7_EEEEE4typeES9_, symObjAddr: 0x590C, symBinAddr: 0x1000060FC, symSize: 0x24 }
  - { offsetInCU: 0xB7AE, offset: 0xB7AE, size: 0x8, addend: 0x0, symName: __ZNSt3__14prevB7v160006IPNS_4pairIiiEEEENS_9enable_ifIXsr25__is_cpp17_input_iteratorIT_EE5valueES5_E4typeES5_NS_15iterator_traitsIS5_E15difference_typeE, symObjAddr: 0x5AC0, symBinAddr: 0x1000062B0, symSize: 0x50 }
  - { offsetInCU: 0xB7F1, offset: 0xB7F1, size: 0x8, addend: 0x0, symName: __ZNSt3__19__advanceB7v160006IPNS_4pairIiiEEEEvRT_NS_15iterator_traitsIS4_E15difference_typeENS_26random_access_iterator_tagE, symObjAddr: 0x5B60, symBinAddr: 0x100006350, symSize: 0x28 }
  - { offsetInCU: 0xB83A, offset: 0xB83A, size: 0x8, addend: 0x0, symName: __ZNSt3__119__allocator_destroyB7v160006INS_9allocatorINS_4pairIiiEEEENS_16reverse_iteratorINS5_IPS3_EEEES8_EEvRT_T0_T1_, symObjAddr: 0x5C8C, symBinAddr: 0x10000647C, symSize: 0x70 }
  - { offsetInCU: 0xB89F, offset: 0xB89F, size: 0x8, addend: 0x0, symName: __ZNSt3__1neB7v160006INS_16reverse_iteratorIPNS_4pairIiiEEEES5_EEbRKNS1_IT_EERKNS1_IT0_EE, symObjAddr: 0x5D38, symBinAddr: 0x100006528, symSize: 0x60 }
  - { offsetInCU: 0xB8EB, offset: 0xB8EB, size: 0x8, addend: 0x0, symName: __ZNSt3__112__to_addressB7v160006INS_16reverse_iteratorINS1_IPNS_4pairIiiEEEEEEvEENS_5decayIDTclsr19__to_address_helperIT_EE6__callclsr3stdE7declvalIRKS8_EEEEE4typeESA_, symObjAddr: 0x5D98, symBinAddr: 0x100006588, symSize: 0x24 }
  - { offsetInCU: 0xB94A, offset: 0xB94A, size: 0x8, addend: 0x0, symName: __ZNSt3__14prevB7v160006INS_16reverse_iteratorIPNS_4pairIiiEEEEEENS_9enable_ifIXsr25__is_cpp17_input_iteratorIT_EE5valueES7_E4typeES7_NS_15iterator_traitsIS7_E15difference_typeE, symObjAddr: 0x5E94, symBinAddr: 0x100006684, symSize: 0x60 }
  - { offsetInCU: 0xB98D, offset: 0xB98D, size: 0x8, addend: 0x0, symName: __ZNSt3__19__advanceB7v160006INS_16reverse_iteratorIPNS_4pairIiiEEEEEEvRT_NS_15iterator_traitsIS6_E15difference_typeENS_26random_access_iterator_tagE, symObjAddr: 0x5F44, symBinAddr: 0x100006734, symSize: 0x2C }
  - { offsetInCU: 0xBF55, offset: 0xBF55, size: 0x8, addend: 0x0, symName: __ZNSt3__116__pad_and_outputB7v160006IcNS_11char_traitsIcEEEENS_19ostreambuf_iteratorIT_T0_EES6_PKS4_S8_S8_RNS_8ios_baseES4_, symObjAddr: 0x666C, symBinAddr: 0x100006E5C, symSize: 0x240 }
  - { offsetInCU: 0xC024, offset: 0xC024, size: 0x8, addend: 0x0, symName: __ZNSt3__19use_facetB7v160006INS_5ctypeIcEEEERKT_RKNS_6localeE, symObjAddr: 0x6C74, symBinAddr: 0x100007464, symSize: 0x2C }
  - { offsetInCU: 0xC8CE, offset: 0xC8CE, size: 0x8, addend: 0x0, symName: __ZSt28__throw_bad_array_new_lengthB7v160006v, symObjAddr: 0x16B8, symBinAddr: 0x100001EA8, symSize: 0x34 }
  - { offsetInCU: 0xCC4C, offset: 0xCC4C, size: 0x8, addend: 0x0, symName: _vis, symObjAddr: 0x428B8, symBinAddr: 0x10000C018, symSize: 0x0 }
  - { offsetInCU: 0xCE7B, offset: 0xCE7B, size: 0x8, addend: 0x0, symName: _color, symObjAddr: 0x45990, symBinAddr: 0x10000F0F0, symSize: 0x0 }
  - { offsetInCU: 0xCE90, offset: 0xCE90, size: 0x8, addend: 0x0, symName: _impossible, symObjAddr: 0x48A68, symBinAddr: 0x1000121C8, symSize: 0x0 }
  - { offsetInCU: 0xD006, offset: 0xD006, size: 0x8, addend: 0x0, symName: __ZNSt3__16vectorINS0_INS_4pairIiiEENS_9allocatorIS2_EEEENS3_IS5_EEE26__swap_out_circular_bufferERNS_14__split_bufferIS5_RS6_EE, symObjAddr: 0x3204, symBinAddr: 0x1000039F4, symSize: 0x118 }
  - { offsetInCU: 0xD09A, offset: 0xD09A, size: 0x8, addend: 0x0, symName: __ZNSt3__16vectorINS_4pairIiiEENS_9allocatorIS2_EEE26__swap_out_circular_bufferERNS_14__split_bufferIS2_RS4_EE, symObjAddr: 0x5040, symBinAddr: 0x100005830, symSize: 0x118 }
  - { offsetInCU: 0xF801, offset: 0xF801, size: 0x8, addend: 0x0, symName: __Z5setIONSt3__112basic_stringIcNS_11char_traitsIcEENS_9allocatorIcEEEE, symObjAddr: 0x0, symBinAddr: 0x1000007F0, symSize: 0x11C }
  - { offsetInCU: 0xF82B, offset: 0xF82B, size: 0x8, addend: 0x0, symName: __ZNSt3__19basic_iosIcNS_11char_traitsIcEEE3tieB7v160006EPNS_13basic_ostreamIcS2_EE, symObjAddr: 0x11C, symBinAddr: 0x10000090C, symSize: 0x2C }
  - { offsetInCU: 0xF871, offset: 0xF871, size: 0x8, addend: 0x0, symName: __ZNKSt3__112basic_stringIcNS_11char_traitsIcEENS_9allocatorIcEEE5emptyB7v160006Ev, symObjAddr: 0x148, symBinAddr: 0x100000938, symSize: 0x30 }
  - { offsetInCU: 0xF897, offset: 0xF897, size: 0x8, addend: 0x0, symName: __ZNKSt3__112basic_stringIcNS_11char_traitsIcEENS_9allocatorIcEEE5c_strB7v160006Ev, symObjAddr: 0x294, symBinAddr: 0x100000A84, symSize: 0x24 }
  - { offsetInCU: 0xF8BD, offset: 0xF8BD, size: 0x8, addend: 0x0, symName: __ZNSt3__16vectorINS0_INS_4pairIiiEENS_9allocatorIS2_EEEENS3_IS5_EEED1B7v160006Ev, symObjAddr: 0x2B8, symBinAddr: 0x100000AA8, symSize: 0x2C }
  - { offsetInCU: 0xF8E6, offset: 0xF8E6, size: 0x8, addend: 0x0, symName: __Z3dfsii, symObjAddr: 0x2E4, symBinAddr: 0x100000AD4, symSize: 0x1AC }
  - { offsetInCU: 0xF96E, offset: 0xF96E, size: 0x8, addend: 0x0, symName: __ZNSt3__16bitsetILm100000EEixB7v160006Em, symObjAddr: 0x490, symBinAddr: 0x100000C80, symSize: 0x3C }
  - { offsetInCU: 0xF9A3, offset: 0xF9A3, size: 0x8, addend: 0x0, symName: __ZNSt3__115__bit_referenceINS_8__bitsetILm1563ELm100000EEELb1EEaSB7v160006Eb, symObjAddr: 0x4CC, symBinAddr: 0x100000CBC, symSize: 0x6C }
  - { offsetInCU: 0xF9D7, offset: 0xF9D7, size: 0x8, addend: 0x0, symName: __ZNSt3__16vectorINS0_INS_4pairIiiEENS_9allocatorIS2_EEEENS3_IS5_EEEixB7v160006Em, symObjAddr: 0x538, symBinAddr: 0x100000D28, symSize: 0x2C }
  - { offsetInCU: 0xFA0E, offset: 0xFA0E, size: 0x8, addend: 0x0, symName: __ZNSt3__16vectorINS_4pairIiiEENS_9allocatorIS2_EEE5beginB7v160006Ev, symObjAddr: 0x564, symBinAddr: 0x100000D54, symSize: 0x30 }
  - { offsetInCU: 0xFA36, offset: 0xFA36, size: 0x8, addend: 0x0, symName: __ZNSt3__16vectorINS_4pairIiiEENS_9allocatorIS2_EEE3endB7v160006Ev, symObjAddr: 0x594, symBinAddr: 0x100000D84, symSize: 0x30 }
  - { offsetInCU: 0xFA5E, offset: 0xFA5E, size: 0x8, addend: 0x0, symName: __ZNKSt3__111__wrap_iterIPNS_4pairIiiEEEdeB7v160006Ev, symObjAddr: 0x5F8, symBinAddr: 0x100000DE8, symSize: 0x18 }
  - { offsetInCU: 0xFA84, offset: 0xFA84, size: 0x8, addend: 0x0, symName: __ZNSt3__14pairIiiEC1B7v160006IiiLPv0EEERNS0_IT_T0_EE, symObjAddr: 0x610, symBinAddr: 0x100000E00, symSize: 0x34 }
  - { offsetInCU: 0xFAD4, offset: 0xFAD4, size: 0x8, addend: 0x0, symName: __ZNKSt3__115__bit_referenceINS_8__bitsetILm1563ELm100000EEELb1EEcvbB7v160006Ev, symObjAddr: 0x644, symBinAddr: 0x100000E34, symSize: 0x2C }
  - { offsetInCU: 0xFAFA, offset: 0xFAFA, size: 0x8, addend: 0x0, symName: __ZNSt3__111__wrap_iterIPNS_4pairIiiEEEppB7v160006Ev, symObjAddr: 0x670, symBinAddr: 0x100000E60, symSize: 0x20 }
  - { offsetInCU: 0xFB20, offset: 0xFB20, size: 0x8, addend: 0x0, symName: _main, symObjAddr: 0x690, symBinAddr: 0x100000E80, symSize: 0x28C }
  - { offsetInCU: 0xFBD5, offset: 0xFBD5, size: 0x8, addend: 0x0, symName: __ZNSt3__16vectorINS0_INS_4pairIiiEENS_9allocatorIS2_EEEENS3_IS5_EEE6resizeEm, symObjAddr: 0x91C, symBinAddr: 0x10000110C, symSize: 0x9C }
  - { offsetInCU: 0xFC1B, offset: 0xFC1B, size: 0x8, addend: 0x0, symName: __ZNSt3__16vectorINS_4pairIiiEENS_9allocatorIS2_EEE9push_backB7v160006EOS2_, symObjAddr: 0xB48, symBinAddr: 0x100001338, symSize: 0x6C }
  - { offsetInCU: 0xFC5D, offset: 0xFC5D, size: 0x8, addend: 0x0, symName: __ZNSt3__14pairIiiEC1B7v160006IRibLPv0EEEOT_OT0_, symObjAddr: 0xBB4, symBinAddr: 0x1000013A4, symSize: 0x3C }
  - { offsetInCU: 0xFCBB, offset: 0xFCBB, size: 0x8, addend: 0x0, symName: __ZNKSt3__112basic_stringIcNS_11char_traitsIcEENS_9allocatorIcEEE4sizeB7v160006Ev, symObjAddr: 0xC6C, symBinAddr: 0x10000145C, symSize: 0x54 }
  - { offsetInCU: 0xFCE1, offset: 0xFCE1, size: 0x8, addend: 0x0, symName: __ZNKSt3__112basic_stringIcNS_11char_traitsIcEENS_9allocatorIcEEE9__is_longB7v160006Ev, symObjAddr: 0xCC0, symBinAddr: 0x1000014B0, symSize: 0x38 }
  - { offsetInCU: 0xFD07, offset: 0xFD07, size: 0x8, addend: 0x0, symName: __ZNKSt3__112basic_stringIcNS_11char_traitsIcEENS_9allocatorIcEEE15__get_long_sizeB7v160006Ev, symObjAddr: 0xCF8, symBinAddr: 0x1000014E8, symSize: 0x28 }
  - { offsetInCU: 0xFD2D, offset: 0xFD2D, size: 0x8, addend: 0x0, symName: __ZNKSt3__112basic_stringIcNS_11char_traitsIcEENS_9allocatorIcEEE16__get_short_sizeB7v160006Ev, symObjAddr: 0xD20, symBinAddr: 0x100001510, symSize: 0x34 }
  - { offsetInCU: 0xFD53, offset: 0xFD53, size: 0x8, addend: 0x0, symName: __ZNKSt3__117__compressed_pairINS_12basic_stringIcNS_11char_traitsIcEENS_9allocatorIcEEE5__repES5_E5firstB7v160006Ev, symObjAddr: 0xD54, symBinAddr: 0x100001544, symSize: 0x24 }
  - { offsetInCU: 0xFD79, offset: 0xFD79, size: 0x8, addend: 0x0, symName: __ZNKSt3__122__compressed_pair_elemINS_12basic_stringIcNS_11char_traitsIcEENS_9allocatorIcEEE5__repELi0ELb0EE5__getB7v160006Ev, symObjAddr: 0xD78, symBinAddr: 0x100001568, symSize: 0x14 }
  - { offsetInCU: 0xFD9F, offset: 0xFD9F, size: 0x8, addend: 0x0, symName: __ZNSt3__111char_traitsIcE6lengthEPKc, symObjAddr: 0xD8C, symBinAddr: 0x10000157C, symSize: 0x34 }
  - { offsetInCU: 0xFDCC, offset: 0xFDCC, size: 0x8, addend: 0x0, symName: __ZNSt3__116allocator_traitsINS_9allocatorIcEEE37select_on_container_copy_constructionB7v160006IS2_vvEES2_RKS2_, symObjAddr: 0xDC0, symBinAddr: 0x1000015B0, symSize: 0x10 }
  - { offsetInCU: 0xFDFB, offset: 0xFDFB, size: 0x8, addend: 0x0, symName: __ZNKSt3__112basic_stringIcNS_11char_traitsIcEENS_9allocatorIcEEE13get_allocatorB7v160006Ev, symObjAddr: 0xDD0, symBinAddr: 0x1000015C0, symSize: 0x24 }
  - { offsetInCU: 0xFE21, offset: 0xFE21, size: 0x8, addend: 0x0, symName: __ZNSt3__112basic_stringIcNS_11char_traitsIcEENS_9allocatorIcEEEC1B7v160006ENS_24__uninitialized_size_tagEmRKS4_, symObjAddr: 0xDF4, symBinAddr: 0x1000015E4, symSize: 0x3C }
  - { offsetInCU: 0xFE75, offset: 0xFE75, size: 0x8, addend: 0x0, symName: __ZNSt3__112basic_stringIcNS_11char_traitsIcEENS_9allocatorIcEEE13__get_pointerB7v160006Ev, symObjAddr: 0xE44, symBinAddr: 0x100001634, symSize: 0x54 }
  - { offsetInCU: 0xFE9B, offset: 0xFE9B, size: 0x8, addend: 0x0, symName: __ZNSt3__111char_traitsIcE4copyEPcPKcm, symObjAddr: 0xE98, symBinAddr: 0x100001688, symSize: 0x5C }
  - { offsetInCU: 0xFEDA, offset: 0xFEDA, size: 0x8, addend: 0x0, symName: __ZNKSt3__112basic_stringIcNS_11char_traitsIcEENS_9allocatorIcEEE4dataB7v160006Ev, symObjAddr: 0xEF4, symBinAddr: 0x1000016E4, symSize: 0x28 }
  - { offsetInCU: 0xFF00, offset: 0xFF00, size: 0x8, addend: 0x0, symName: __ZNSt3__111char_traitsIcE6assignEPcmc, symObjAddr: 0xF1C, symBinAddr: 0x10000170C, symSize: 0x44 }
  - { offsetInCU: 0xFF3F, offset: 0xFF3F, size: 0x8, addend: 0x0, symName: __ZNKSt3__112basic_stringIcNS_11char_traitsIcEENS_9allocatorIcEEE7__allocB7v160006Ev, symObjAddr: 0xF90, symBinAddr: 0x100001780, symSize: 0x24 }
  - { offsetInCU: 0xFF65, offset: 0xFF65, size: 0x8, addend: 0x0, symName: __ZNKSt3__117__compressed_pairINS_12basic_stringIcNS_11char_traitsIcEENS_9allocatorIcEEE5__repES5_E6secondB7v160006Ev, symObjAddr: 0xFB4, symBinAddr: 0x1000017A4, symSize: 0x24 }
  - { offsetInCU: 0xFF8B, offset: 0xFF8B, size: 0x8, addend: 0x0, symName: __ZNKSt3__122__compressed_pair_elemINS_9allocatorIcEELi1ELb1EE5__getB7v160006Ev, symObjAddr: 0xFD8, symBinAddr: 0x1000017C8, symSize: 0x14 }
  - { offsetInCU: 0xFFB1, offset: 0xFFB1, size: 0x8, addend: 0x0, symName: __ZNSt3__112basic_stringIcNS_11char_traitsIcEENS_9allocatorIcEEEC2B7v160006ENS_24__uninitialized_size_tagEmRKS4_, symObjAddr: 0xFEC, symBinAddr: 0x1000017DC, symSize: 0x118 }
  - { offsetInCU: 0x10037, offset: 0x10037, size: 0x8, addend: 0x0, symName: __ZNSt3__117__compressed_pairINS_12basic_stringIcNS_11char_traitsIcEENS_9allocatorIcEEE5__repES5_EC1B7v160006INS_18__default_init_tagERKS5_EEOT_OT0_, symObjAddr: 0x1104, symBinAddr: 0x1000018F4, symSize: 0x3C }
  - { offsetInCU: 0x1008F, offset: 0x1008F, size: 0x8, addend: 0x0, symName: __ZNKSt3__112basic_stringIcNS_11char_traitsIcEENS_9allocatorIcEEE8max_sizeB7v160006Ev, symObjAddr: 0x1140, symBinAddr: 0x100001930, symSize: 0xAC }
  - { offsetInCU: 0x100E1, offset: 0x100E1, size: 0x8, addend: 0x0, symName: __ZNKSt3__112basic_stringIcNS_11char_traitsIcEENS_9allocatorIcEEE20__throw_length_errorB7v160006Ev, symObjAddr: 0x11EC, symBinAddr: 0x1000019DC, symSize: 0x1C }
  - { offsetInCU: 0x10107, offset: 0x10107, size: 0x8, addend: 0x0, symName: __ZNSt3__112basic_stringIcNS_11char_traitsIcEENS_9allocatorIcEEE13__fits_in_ssoB7v160006Em, symObjAddr: 0x1208, symBinAddr: 0x1000019F8, symSize: 0x20 }
  - { offsetInCU: 0x1012B, offset: 0x1012B, size: 0x8, addend: 0x0, symName: __ZNSt3__117__compressed_pairINS_12basic_stringIcNS_11char_traitsIcEENS_9allocatorIcEEE5__repES5_E5firstB7v160006Ev, symObjAddr: 0x1228, symBinAddr: 0x100001A18, symSize: 0x24 }
  - { offsetInCU: 0x10151, offset: 0x10151, size: 0x8, addend: 0x0, symName: __ZNSt3__112basic_stringIcNS_11char_traitsIcEENS_9allocatorIcEEE16__set_short_sizeB7v160006Em, symObjAddr: 0x124C, symBinAddr: 0x100001A3C, symSize: 0x78 }
  - { offsetInCU: 0x10186, offset: 0x10186, size: 0x8, addend: 0x0, symName: __ZNSt3__112basic_stringIcNS_11char_traitsIcEENS_9allocatorIcEEE11__recommendB7v160006Em, symObjAddr: 0x12C4, symBinAddr: 0x100001AB4, symSize: 0x84 }
  - { offsetInCU: 0x101B9, offset: 0x101B9, size: 0x8, addend: 0x0, symName: __ZNSt3__116allocator_traitsINS_9allocatorIcEEE8allocateB7v160006ERS2_m, symObjAddr: 0x1348, symBinAddr: 0x100001B38, symSize: 0x2C }
  - { offsetInCU: 0x101EC, offset: 0x101EC, size: 0x8, addend: 0x0, symName: __ZNSt3__112basic_stringIcNS_11char_traitsIcEENS_9allocatorIcEEE7__allocB7v160006Ev, symObjAddr: 0x1374, symBinAddr: 0x100001B64, symSize: 0x24 }
  - { offsetInCU: 0x10212, offset: 0x10212, size: 0x8, addend: 0x0, symName: __ZNSt3__112basic_stringIcNS_11char_traitsIcEENS_9allocatorIcEEE16__begin_lifetimeB7v160006EPcm, symObjAddr: 0x1398, symBinAddr: 0x100001B88, symSize: 0x14 }
  - { offsetInCU: 0x10245, offset: 0x10245, size: 0x8, addend: 0x0, symName: __ZNSt3__112basic_stringIcNS_11char_traitsIcEENS_9allocatorIcEEE14__set_long_capB7v160006Em, symObjAddr: 0x13AC, symBinAddr: 0x100001B9C, symSize: 0x70 }
  - { offsetInCU: 0x1027A, offset: 0x1027A, size: 0x8, addend: 0x0, symName: __ZNSt3__112basic_stringIcNS_11char_traitsIcEENS_9allocatorIcEEE18__set_long_pointerB7v160006EPc, symObjAddr: 0x141C, symBinAddr: 0x100001C0C, symSize: 0x38 }
  - { offsetInCU: 0x102AF, offset: 0x102AF, size: 0x8, addend: 0x0, symName: __ZNSt3__112basic_stringIcNS_11char_traitsIcEENS_9allocatorIcEEE15__set_long_sizeB7v160006Em, symObjAddr: 0x1454, symBinAddr: 0x100001C44, symSize: 0x38 }
  - { offsetInCU: 0x102E4, offset: 0x102E4, size: 0x8, addend: 0x0, symName: __ZNSt3__117__compressed_pairINS_12basic_stringIcNS_11char_traitsIcEENS_9allocatorIcEEE5__repES5_EC2B7v160006INS_18__default_init_tagERKS5_EEOT_OT0_, symObjAddr: 0x149C, symBinAddr: 0x100001C8C, symSize: 0x40 }
  - { offsetInCU: 0x1033C, offset: 0x1033C, size: 0x8, addend: 0x0, symName: __ZNSt3__122__compressed_pair_elemINS_12basic_stringIcNS_11char_traitsIcEENS_9allocatorIcEEE5__repELi0ELb0EEC2B7v160006ENS_18__default_init_tagE, symObjAddr: 0x14DC, symBinAddr: 0x100001CCC, symSize: 0x14 }
  - { offsetInCU: 0x10370, offset: 0x10370, size: 0x8, addend: 0x0, symName: __ZNSt3__122__compressed_pair_elemINS_9allocatorIcEELi1ELb1EEC2B7v160006IRKS2_vEEOT_, symObjAddr: 0x14F0, symBinAddr: 0x100001CE0, symSize: 0x18 }
  - { offsetInCU: 0x103B2, offset: 0x103B2, size: 0x8, addend: 0x0, symName: __ZNSt3__116allocator_traitsINS_9allocatorIcEEE8max_sizeB7v160006IS2_vvEEmRKS2_, symObjAddr: 0x1508, symBinAddr: 0x100001CF8, symSize: 0x28 }
  - { offsetInCU: 0x103DE, offset: 0x103DE, size: 0x8, addend: 0x0, symName: __ZNSt3__114numeric_limitsImE3maxB7v160006Ev, symObjAddr: 0x1530, symBinAddr: 0x100001D20, symSize: 0x14 }
  - { offsetInCU: 0x103F2, offset: 0x103F2, size: 0x8, addend: 0x0, symName: __ZNSt3__123__libcpp_numeric_limitsImLb1EE3maxB7v160006Ev, symObjAddr: 0x1544, symBinAddr: 0x100001D34, symSize: 0x8 }
  - { offsetInCU: 0x10406, offset: 0x10406, size: 0x8, addend: 0x0, symName: __ZNSt12length_errorC1B7v160006EPKc, symObjAddr: 0x15B0, symBinAddr: 0x100001DA0, symSize: 0x34 }
  - { offsetInCU: 0x1043E, offset: 0x1043E, size: 0x8, addend: 0x0, symName: __ZNSt12length_errorC2B7v160006EPKc, symObjAddr: 0x15E4, symBinAddr: 0x100001DD4, symSize: 0x4C }
  - { offsetInCU: 0x10476, offset: 0x10476, size: 0x8, addend: 0x0, symName: __ZNSt3__122__compressed_pair_elemINS_12basic_stringIcNS_11char_traitsIcEENS_9allocatorIcEEE5__repELi0ELb0EE5__getB7v160006Ev, symObjAddr: 0x1630, symBinAddr: 0x100001E20, symSize: 0x14 }
  - { offsetInCU: 0x1049C, offset: 0x1049C, size: 0x8, addend: 0x0, symName: __ZNSt3__112basic_stringIcNS_11char_traitsIcEENS_9allocatorIcEEE10__align_itB7v160006ILm16EEEmm, symObjAddr: 0x1644, symBinAddr: 0x100001E34, symSize: 0x1C }
  - { offsetInCU: 0x104CA, offset: 0x104CA, size: 0x8, addend: 0x0, symName: __ZNSt3__19allocatorIcE8allocateB7v160006Em, symObjAddr: 0x1660, symBinAddr: 0x100001E50, symSize: 0x58 }
  - { offsetInCU: 0x104FE, offset: 0x104FE, size: 0x8, addend: 0x0, symName: __ZNSt3__117__compressed_pairINS_12basic_stringIcNS_11char_traitsIcEENS_9allocatorIcEEE5__repES5_E6secondB7v160006Ev, symObjAddr: 0x17BC, symBinAddr: 0x100001FAC, symSize: 0x24 }
  - { offsetInCU: 0x10524, offset: 0x10524, size: 0x8, addend: 0x0, symName: __ZNSt3__122__compressed_pair_elemINS_9allocatorIcEELi1ELb1EE5__getB7v160006Ev, symObjAddr: 0x17E0, symBinAddr: 0x100001FD0, symSize: 0x14 }
  - { offsetInCU: 0x1054A, offset: 0x1054A, size: 0x8, addend: 0x0, symName: __ZNSt3__112basic_stringIcNS_11char_traitsIcEENS_9allocatorIcEEE18__get_long_pointerB7v160006Ev, symObjAddr: 0x17F4, symBinAddr: 0x100001FE4, symSize: 0x28 }
  - { offsetInCU: 0x10570, offset: 0x10570, size: 0x8, addend: 0x0, symName: __ZNSt3__112basic_stringIcNS_11char_traitsIcEENS_9allocatorIcEEE19__get_short_pointerB7v160006Ev, symObjAddr: 0x181C, symBinAddr: 0x10000200C, symSize: 0x28 }
  - { offsetInCU: 0x10596, offset: 0x10596, size: 0x8, addend: 0x0, symName: __ZNSt3__114pointer_traitsIPcE10pointer_toB7v160006ERc, symObjAddr: 0x1844, symBinAddr: 0x100002034, symSize: 0x14 }
  - { offsetInCU: 0x105E2, offset: 0x105E2, size: 0x8, addend: 0x0, symName: __ZNKSt3__114__copy_trivialclB7v160006IKccLi0EEENS_4pairIPT_PT0_EES5_S5_S7_, symObjAddr: 0x1A54, symBinAddr: 0x100002244, symSize: 0x48 }
  - { offsetInCU: 0x10669, offset: 0x10669, size: 0x8, addend: 0x0, symName: __ZNSt3__119__unwrap_range_implIPKcS2_E8__unwrapB7v160006ES2_S2_, symObjAddr: 0x1B60, symBinAddr: 0x100002350, symSize: 0x58 }
  - { offsetInCU: 0x106A0, offset: 0x106A0, size: 0x8, addend: 0x0, symName: __ZNSt3__14pairIPKcS2_EC1B7v160006IS2_S2_LPv0EEEOT_OT0_, symObjAddr: 0x1BDC, symBinAddr: 0x1000023CC, symSize: 0x3C }
  - { offsetInCU: 0x106FE, offset: 0x106FE, size: 0x8, addend: 0x0, symName: __ZNSt3__118__unwrap_iter_implIPKcLb1EE8__unwrapB7v160006ES2_, symObjAddr: 0x1C18, symBinAddr: 0x100002408, symSize: 0x24 }
  - { offsetInCU: 0x10721, offset: 0x10721, size: 0x8, addend: 0x0, symName: __ZNSt3__14pairIPKcS2_EC2B7v160006IS2_S2_LPv0EEEOT_OT0_, symObjAddr: 0x1C50, symBinAddr: 0x100002440, symSize: 0x34 }
  - { offsetInCU: 0x1078A, offset: 0x1078A, size: 0x8, addend: 0x0, symName: __ZNSt3__14pairIPKcPcEC1B7v160006IRS2_S3_LPv0EEEOT_OT0_, symObjAddr: 0x1D38, symBinAddr: 0x100002528, symSize: 0x3C }
  - { offsetInCU: 0x107E8, offset: 0x107E8, size: 0x8, addend: 0x0, symName: __ZNSt3__14pairIPKcPcEC2B7v160006IRS2_S3_LPv0EEEOT_OT0_, symObjAddr: 0x1D74, symBinAddr: 0x100002564, symSize: 0x34 }
  - { offsetInCU: 0x10846, offset: 0x10846, size: 0x8, addend: 0x0, symName: __ZNSt3__118__unwrap_iter_implIPcLb1EE8__unwrapB7v160006ES1_, symObjAddr: 0x1DA8, symBinAddr: 0x100002598, symSize: 0x24 }
  - { offsetInCU: 0x10869, offset: 0x10869, size: 0x8, addend: 0x0, symName: __ZNSt3__14pairIPKcPcEC1B7v160006IS2_S3_LPv0EEEOT_OT0_, symObjAddr: 0x1DCC, symBinAddr: 0x1000025BC, symSize: 0x3C }
  - { offsetInCU: 0x108C7, offset: 0x108C7, size: 0x8, addend: 0x0, symName: __ZNSt3__14pairIPKcPcEC2B7v160006IS2_S3_LPv0EEEOT_OT0_, symObjAddr: 0x1E08, symBinAddr: 0x1000025F8, symSize: 0x34 }
  - { offsetInCU: 0x10925, offset: 0x10925, size: 0x8, addend: 0x0, symName: __ZNSt3__119__unwrap_range_implIPKcS2_E8__rewrapB7v160006ES2_S2_, symObjAddr: 0x1E3C, symBinAddr: 0x10000262C, symSize: 0x2C }
  - { offsetInCU: 0x10956, offset: 0x10956, size: 0x8, addend: 0x0, symName: __ZNSt3__118__unwrap_iter_implIPKcLb1EE8__rewrapB7v160006ES2_S2_, symObjAddr: 0x1EA4, symBinAddr: 0x100002694, symSize: 0x48 }
  - { offsetInCU: 0x10987, offset: 0x10987, size: 0x8, addend: 0x0, symName: __ZNSt3__118__unwrap_iter_implIPcLb1EE8__rewrapB7v160006ES1_S1_, symObjAddr: 0x1EEC, symBinAddr: 0x1000026DC, symSize: 0x48 }
  - { offsetInCU: 0x109B8, offset: 0x109B8, size: 0x8, addend: 0x0, symName: __ZNKSt3__112basic_stringIcNS_11char_traitsIcEENS_9allocatorIcEEE13__get_pointerB7v160006Ev, symObjAddr: 0x1F34, symBinAddr: 0x100002724, symSize: 0x54 }
  - { offsetInCU: 0x109DE, offset: 0x109DE, size: 0x8, addend: 0x0, symName: __ZNKSt3__112basic_stringIcNS_11char_traitsIcEENS_9allocatorIcEEE18__get_long_pointerB7v160006Ev, symObjAddr: 0x1F88, symBinAddr: 0x100002778, symSize: 0x28 }
  - { offsetInCU: 0x10A04, offset: 0x10A04, size: 0x8, addend: 0x0, symName: __ZNKSt3__112basic_stringIcNS_11char_traitsIcEENS_9allocatorIcEEE19__get_short_pointerB7v160006Ev, symObjAddr: 0x1FB0, symBinAddr: 0x1000027A0, symSize: 0x28 }
  - { offsetInCU: 0x10A2A, offset: 0x10A2A, size: 0x8, addend: 0x0, symName: __ZNSt3__114pointer_traitsIPKcE10pointer_toB7v160006ERS1_, symObjAddr: 0x1FD8, symBinAddr: 0x1000027C8, symSize: 0x14 }
  - { offsetInCU: 0x10A4D, offset: 0x10A4D, size: 0x8, addend: 0x0, symName: __ZNSt3__16vectorINS0_INS_4pairIiiEENS_9allocatorIS2_EEEENS3_IS5_EEED2B7v160006Ev, symObjAddr: 0x20A8, symBinAddr: 0x100002898, symSize: 0x44 }
  - { offsetInCU: 0x10A77, offset: 0x10A77, size: 0x8, addend: 0x0, symName: __ZNSt3__16vectorINS0_INS_4pairIiiEENS_9allocatorIS2_EEEENS3_IS5_EEE16__destroy_vectorC1ERS7_, symObjAddr: 0x20EC, symBinAddr: 0x1000028DC, symSize: 0x34 }
  - { offsetInCU: 0x10AB0, offset: 0x10AB0, size: 0x8, addend: 0x0, symName: __ZNSt3__16vectorINS0_INS_4pairIiiEENS_9allocatorIS2_EEEENS3_IS5_EEE16__destroy_vectorclB7v160006Ev, symObjAddr: 0x2120, symBinAddr: 0x100002910, symSize: 0x9C }
  - { offsetInCU: 0x10AD6, offset: 0x10AD6, size: 0x8, addend: 0x0, symName: __ZNSt3__16vectorINS0_INS_4pairIiiEENS_9allocatorIS2_EEEENS3_IS5_EEE16__destroy_vectorC2ERS7_, symObjAddr: 0x21BC, symBinAddr: 0x1000029AC, symSize: 0x20 }
  - { offsetInCU: 0x10B0F, offset: 0x10B0F, size: 0x8, addend: 0x0, symName: __ZNKSt3__16vectorINS0_INS_4pairIiiEENS_9allocatorIS2_EEEENS3_IS5_EEE17__annotate_deleteB7v160006Ev, symObjAddr: 0x21DC, symBinAddr: 0x1000029CC, symSize: 0xD4 }
  - { offsetInCU: 0x10B35, offset: 0x10B35, size: 0x8, addend: 0x0, symName: __ZNSt3__16vectorINS0_INS_4pairIiiEENS_9allocatorIS2_EEEENS3_IS5_EEE7__clearB7v160006Ev, symObjAddr: 0x22C0, symBinAddr: 0x100002AB0, symSize: 0x28 }
  - { offsetInCU: 0x10B5B, offset: 0x10B5B, size: 0x8, addend: 0x0, symName: __ZNSt3__116allocator_traitsINS_9allocatorINS_6vectorINS_4pairIiiEENS1_IS4_EEEEEEE10deallocateB7v160006ERS7_PS6_m, symObjAddr: 0x22E8, symBinAddr: 0x100002AD8, symSize: 0x34 }
  - { offsetInCU: 0x10B9D, offset: 0x10B9D, size: 0x8, addend: 0x0, symName: __ZNSt3__16vectorINS0_INS_4pairIiiEENS_9allocatorIS2_EEEENS3_IS5_EEE7__allocB7v160006Ev, symObjAddr: 0x231C, symBinAddr: 0x100002B0C, symSize: 0x28 }
  - { offsetInCU: 0x10BC3, offset: 0x10BC3, size: 0x8, addend: 0x0, symName: __ZNKSt3__16vectorINS0_INS_4pairIiiEENS_9allocatorIS2_EEEENS3_IS5_EEE8capacityB7v160006Ev, symObjAddr: 0x2344, symBinAddr: 0x100002B34, symSize: 0x40 }
  - { offsetInCU: 0x10BE9, offset: 0x10BE9, size: 0x8, addend: 0x0, symName: __ZNKSt3__16vectorINS0_INS_4pairIiiEENS_9allocatorIS2_EEEENS3_IS5_EEE31__annotate_contiguous_containerB7v160006EPKvS9_S9_S9_, symObjAddr: 0x2384, symBinAddr: 0x100002B74, symSize: 0x20 }
  - { offsetInCU: 0x10C3F, offset: 0x10C3F, size: 0x8, addend: 0x0, symName: __ZNKSt3__16vectorINS0_INS_4pairIiiEENS_9allocatorIS2_EEEENS3_IS5_EEE4dataB7v160006Ev, symObjAddr: 0x23A4, symBinAddr: 0x100002B94, symSize: 0x28 }
  - { offsetInCU: 0x10C65, offset: 0x10C65, size: 0x8, addend: 0x0, symName: __ZNKSt3__16vectorINS0_INS_4pairIiiEENS_9allocatorIS2_EEEENS3_IS5_EEE4sizeB7v160006Ev, symObjAddr: 0x23CC, symBinAddr: 0x100002BBC, symSize: 0x28 }
  - { offsetInCU: 0x10C8B, offset: 0x10C8B, size: 0x8, addend: 0x0, symName: __ZNSt3__16vectorINS0_INS_4pairIiiEENS_9allocatorIS2_EEEENS3_IS5_EEE22__base_destruct_at_endB7v160006EPS5_, symObjAddr: 0x2408, symBinAddr: 0x100002BF8, symSize: 0x8C }
  - { offsetInCU: 0x10CCF, offset: 0x10CCF, size: 0x8, addend: 0x0, symName: __ZNSt3__116allocator_traitsINS_9allocatorINS_6vectorINS_4pairIiiEENS1_IS4_EEEEEEE7destroyB7v160006IS6_vvEEvRS7_PT_, symObjAddr: 0x2494, symBinAddr: 0x100002C84, symSize: 0x28 }
  - { offsetInCU: 0x10D0A, offset: 0x10D0A, size: 0x8, addend: 0x0, symName: __ZNSt3__16vectorINS_4pairIiiEENS_9allocatorIS2_EEED1B7v160006Ev, symObjAddr: 0x2504, symBinAddr: 0x100002CF4, symSize: 0x2C }
  - { offsetInCU: 0x10D34, offset: 0x10D34, size: 0x8, addend: 0x0, symName: __ZNSt3__16vectorINS_4pairIiiEENS_9allocatorIS2_EEED2B7v160006Ev, symObjAddr: 0x2530, symBinAddr: 0x100002D20, symSize: 0x44 }
  - { offsetInCU: 0x10D5E, offset: 0x10D5E, size: 0x8, addend: 0x0, symName: __ZNSt3__16vectorINS_4pairIiiEENS_9allocatorIS2_EEE16__destroy_vectorC1ERS5_, symObjAddr: 0x2574, symBinAddr: 0x100002D64, symSize: 0x34 }
  - { offsetInCU: 0x10D97, offset: 0x10D97, size: 0x8, addend: 0x0, symName: __ZNSt3__16vectorINS_4pairIiiEENS_9allocatorIS2_EEE16__destroy_vectorclB7v160006Ev, symObjAddr: 0x25A8, symBinAddr: 0x100002D98, symSize: 0x9C }
  - { offsetInCU: 0x10DBD, offset: 0x10DBD, size: 0x8, addend: 0x0, symName: __ZNSt3__16vectorINS_4pairIiiEENS_9allocatorIS2_EEE16__destroy_vectorC2ERS5_, symObjAddr: 0x2644, symBinAddr: 0x100002E34, symSize: 0x20 }
  - { offsetInCU: 0x10DF6, offset: 0x10DF6, size: 0x8, addend: 0x0, symName: __ZNKSt3__16vectorINS_4pairIiiEENS_9allocatorIS2_EEE17__annotate_deleteB7v160006Ev, symObjAddr: 0x2664, symBinAddr: 0x100002E54, symSize: 0xB8 }
  - { offsetInCU: 0x10E1C, offset: 0x10E1C, size: 0x8, addend: 0x0, symName: __ZNSt3__16vectorINS_4pairIiiEENS_9allocatorIS2_EEE7__clearB7v160006Ev, symObjAddr: 0x272C, symBinAddr: 0x100002F1C, symSize: 0x28 }
  - { offsetInCU: 0x10E42, offset: 0x10E42, size: 0x8, addend: 0x0, symName: __ZNSt3__116allocator_traitsINS_9allocatorINS_4pairIiiEEEEE10deallocateB7v160006ERS4_PS3_m, symObjAddr: 0x2754, symBinAddr: 0x100002F44, symSize: 0x34 }
  - { offsetInCU: 0x10E84, offset: 0x10E84, size: 0x8, addend: 0x0, symName: __ZNSt3__16vectorINS_4pairIiiEENS_9allocatorIS2_EEE7__allocB7v160006Ev, symObjAddr: 0x2788, symBinAddr: 0x100002F78, symSize: 0x28 }
  - { offsetInCU: 0x10EAA, offset: 0x10EAA, size: 0x8, addend: 0x0, symName: __ZNKSt3__16vectorINS_4pairIiiEENS_9allocatorIS2_EEE8capacityB7v160006Ev, symObjAddr: 0x27B0, symBinAddr: 0x100002FA0, symSize: 0x40 }
  - { offsetInCU: 0x10ED0, offset: 0x10ED0, size: 0x8, addend: 0x0, symName: __ZNKSt3__16vectorINS_4pairIiiEENS_9allocatorIS2_EEE31__annotate_contiguous_containerB7v160006EPKvS7_S7_S7_, symObjAddr: 0x27F0, symBinAddr: 0x100002FE0, symSize: 0x20 }
  - { offsetInCU: 0x10F26, offset: 0x10F26, size: 0x8, addend: 0x0, symName: __ZNKSt3__16vectorINS_4pairIiiEENS_9allocatorIS2_EEE4dataB7v160006Ev, symObjAddr: 0x2810, symBinAddr: 0x100003000, symSize: 0x28 }
  - { offsetInCU: 0x10F4C, offset: 0x10F4C, size: 0x8, addend: 0x0, symName: __ZNKSt3__16vectorINS_4pairIiiEENS_9allocatorIS2_EEE4sizeB7v160006Ev, symObjAddr: 0x2838, symBinAddr: 0x100003028, symSize: 0x28 }
  - { offsetInCU: 0x10F72, offset: 0x10F72, size: 0x8, addend: 0x0, symName: __ZNSt3__16vectorINS_4pairIiiEENS_9allocatorIS2_EEE22__base_destruct_at_endB7v160006EPS2_, symObjAddr: 0x2874, symBinAddr: 0x100003064, symSize: 0x8C }
  - { offsetInCU: 0x10FB6, offset: 0x10FB6, size: 0x8, addend: 0x0, symName: __ZNSt3__116allocator_traitsINS_9allocatorINS_4pairIiiEEEEE7destroyB7v160006IS3_vvEEvRS4_PT_, symObjAddr: 0x2900, symBinAddr: 0x1000030F0, symSize: 0x28 }
  - { offsetInCU: 0x10FF1, offset: 0x10FF1, size: 0x8, addend: 0x0, symName: __ZNSt3__19allocatorINS_4pairIiiEEE10deallocateB7v160006EPS2_m, symObjAddr: 0x295C, symBinAddr: 0x10000314C, symSize: 0x40 }
  - { offsetInCU: 0x11033, offset: 0x11033, size: 0x8, addend: 0x0, symName: __ZNSt3__117__compressed_pairIPNS_4pairIiiEENS_9allocatorIS2_EEE6secondB7v160006Ev, symObjAddr: 0x2AA4, symBinAddr: 0x100003294, symSize: 0x24 }
  - { offsetInCU: 0x11059, offset: 0x11059, size: 0x8, addend: 0x0, symName: __ZNSt3__122__compressed_pair_elemINS_9allocatorINS_4pairIiiEEEELi1ELb1EE5__getB7v160006Ev, symObjAddr: 0x2AC8, symBinAddr: 0x1000032B8, symSize: 0x14 }
  - { offsetInCU: 0x1107F, offset: 0x1107F, size: 0x8, addend: 0x0, symName: __ZNKSt3__16vectorINS_4pairIiiEENS_9allocatorIS2_EEE9__end_capB7v160006Ev, symObjAddr: 0x2ADC, symBinAddr: 0x1000032CC, symSize: 0x28 }
  - { offsetInCU: 0x110A5, offset: 0x110A5, size: 0x8, addend: 0x0, symName: __ZNKSt3__117__compressed_pairIPNS_4pairIiiEENS_9allocatorIS2_EEE5firstB7v160006Ev, symObjAddr: 0x2B04, symBinAddr: 0x1000032F4, symSize: 0x24 }
  - { offsetInCU: 0x110CB, offset: 0x110CB, size: 0x8, addend: 0x0, symName: __ZNKSt3__122__compressed_pair_elemIPNS_4pairIiiEELi0ELb0EE5__getB7v160006Ev, symObjAddr: 0x2B28, symBinAddr: 0x100003318, symSize: 0x14 }
  - { offsetInCU: 0x110F1, offset: 0x110F1, size: 0x8, addend: 0x0, symName: __ZNSt3__19allocatorINS_6vectorINS_4pairIiiEENS0_IS3_EEEEE10deallocateB7v160006EPS5_m, symObjAddr: 0x2B3C, symBinAddr: 0x10000332C, symSize: 0x44 }
  - { offsetInCU: 0x11133, offset: 0x11133, size: 0x8, addend: 0x0, symName: __ZNSt3__117__compressed_pairIPNS_6vectorINS_4pairIiiEENS_9allocatorIS3_EEEENS4_IS6_EEE6secondB7v160006Ev, symObjAddr: 0x2B80, symBinAddr: 0x100003370, symSize: 0x24 }
  - { offsetInCU: 0x11159, offset: 0x11159, size: 0x8, addend: 0x0, symName: __ZNSt3__122__compressed_pair_elemINS_9allocatorINS_6vectorINS_4pairIiiEENS1_IS4_EEEEEELi1ELb1EE5__getB7v160006Ev, symObjAddr: 0x2BA4, symBinAddr: 0x100003394, symSize: 0x14 }
  - { offsetInCU: 0x1117F, offset: 0x1117F, size: 0x8, addend: 0x0, symName: __ZNKSt3__16vectorINS0_INS_4pairIiiEENS_9allocatorIS2_EEEENS3_IS5_EEE9__end_capB7v160006Ev, symObjAddr: 0x2BB8, symBinAddr: 0x1000033A8, symSize: 0x28 }
  - { offsetInCU: 0x111A5, offset: 0x111A5, size: 0x8, addend: 0x0, symName: __ZNKSt3__117__compressed_pairIPNS_6vectorINS_4pairIiiEENS_9allocatorIS3_EEEENS4_IS6_EEE5firstB7v160006Ev, symObjAddr: 0x2BE0, symBinAddr: 0x1000033D0, symSize: 0x24 }
  - { offsetInCU: 0x111CB, offset: 0x111CB, size: 0x8, addend: 0x0, symName: __ZNKSt3__122__compressed_pair_elemIPNS_6vectorINS_4pairIiiEENS_9allocatorIS3_EEEELi0ELb0EE5__getB7v160006Ev, symObjAddr: 0x2C04, symBinAddr: 0x1000033F4, symSize: 0x14 }
  - { offsetInCU: 0x111F1, offset: 0x111F1, size: 0x8, addend: 0x0, symName: __ZNSt3__18__bitsetILm1563ELm100000EE10__make_refB7v160006Em, symObjAddr: 0x2C18, symBinAddr: 0x100003408, symSize: 0x5C }
  - { offsetInCU: 0x11225, offset: 0x11225, size: 0x8, addend: 0x0, symName: __ZNSt3__115__bit_referenceINS_8__bitsetILm1563ELm100000EEELb1EEC1B7v160006EPmm, symObjAddr: 0x2C74, symBinAddr: 0x100003464, symSize: 0x3C }
  - { offsetInCU: 0x1126B, offset: 0x1126B, size: 0x8, addend: 0x0, symName: __ZNSt3__115__bit_referenceINS_8__bitsetILm1563ELm100000EEELb1EEC2B7v160006EPmm, symObjAddr: 0x2CB0, symBinAddr: 0x1000034A0, symSize: 0x2C }
  - { offsetInCU: 0x112B1, offset: 0x112B1, size: 0x8, addend: 0x0, symName: __ZNSt3__16vectorINS_4pairIiiEENS_9allocatorIS2_EEE11__make_iterB7v160006EPS2_, symObjAddr: 0x2CDC, symBinAddr: 0x1000034CC, symSize: 0x34 }
  - { offsetInCU: 0x112E6, offset: 0x112E6, size: 0x8, addend: 0x0, symName: __ZNSt3__111__wrap_iterIPNS_4pairIiiEEEC1B7v160006EPKvS3_, symObjAddr: 0x2D10, symBinAddr: 0x100003500, symSize: 0x3C }
  - { offsetInCU: 0x1132C, offset: 0x1132C, size: 0x8, addend: 0x0, symName: __ZNSt3__111__wrap_iterIPNS_4pairIiiEEEC2B7v160006EPKvS3_, symObjAddr: 0x2D4C, symBinAddr: 0x10000353C, symSize: 0x24 }
  - { offsetInCU: 0x11372, offset: 0x11372, size: 0x8, addend: 0x0, symName: __ZNKSt3__111__wrap_iterIPNS_4pairIiiEEE4baseB7v160006Ev, symObjAddr: 0x2DB8, symBinAddr: 0x1000035A8, symSize: 0x18 }
  - { offsetInCU: 0x11398, offset: 0x11398, size: 0x8, addend: 0x0, symName: __ZNSt3__14pairIiiEC2B7v160006IiiLPv0EEERNS0_IT_T0_EE, symObjAddr: 0x2DD0, symBinAddr: 0x1000035C0, symSize: 0x30 }
  - { offsetInCU: 0x113E8, offset: 0x113E8, size: 0x8, addend: 0x0, symName: __ZNSt3__16vectorINS0_INS_4pairIiiEENS_9allocatorIS2_EEEENS3_IS5_EEE8__appendEm, symObjAddr: 0x2E00, symBinAddr: 0x1000035F0, symSize: 0x108 }
  - { offsetInCU: 0x11443, offset: 0x11443, size: 0x8, addend: 0x0, symName: __ZNSt3__16vectorINS0_INS_4pairIiiEENS_9allocatorIS2_EEEENS3_IS5_EEE17__destruct_at_endB7v160006EPS5_, symObjAddr: 0x2F08, symBinAddr: 0x1000036F8, symSize: 0x60 }
  - { offsetInCU: 0x11487, offset: 0x11487, size: 0x8, addend: 0x0, symName: __ZNSt3__16vectorINS0_INS_4pairIiiEENS_9allocatorIS2_EEEENS3_IS5_EEE9__end_capB7v160006Ev, symObjAddr: 0x2F68, symBinAddr: 0x100003758, symSize: 0x28 }
  - { offsetInCU: 0x114AD, offset: 0x114AD, size: 0x8, addend: 0x0, symName: __ZNSt3__16vectorINS0_INS_4pairIiiEENS_9allocatorIS2_EEEENS3_IS5_EEE18__construct_at_endEm, symObjAddr: 0x2F90, symBinAddr: 0x100003780, symSize: 0xC8 }
  - { offsetInCU: 0x1151F, offset: 0x1151F, size: 0x8, addend: 0x0, symName: __ZNKSt3__16vectorINS0_INS_4pairIiiEENS_9allocatorIS2_EEEENS3_IS5_EEE11__recommendB7v160006Em, symObjAddr: 0x3058, symBinAddr: 0x100003848, symSize: 0xB4 }
  - { offsetInCU: 0x11574, offset: 0x11574, size: 0x8, addend: 0x0, symName: __ZNSt3__114__split_bufferINS_6vectorINS_4pairIiiEENS_9allocatorIS3_EEEERNS4_IS6_EEEC1EmmS8_, symObjAddr: 0x310C, symBinAddr: 0x1000038FC, symSize: 0x44 }
  - { offsetInCU: 0x115CA, offset: 0x115CA, size: 0x8, addend: 0x0, symName: __ZNSt3__114__split_bufferINS_6vectorINS_4pairIiiEENS_9allocatorIS3_EEEERNS4_IS6_EEE18__construct_at_endEm, symObjAddr: 0x3150, symBinAddr: 0x100003940, symSize: 0xB4 }
  - { offsetInCU: 0x1160D, offset: 0x1160D, size: 0x8, addend: 0x0, symName: __ZNSt3__114__split_bufferINS_6vectorINS_4pairIiiEENS_9allocatorIS3_EEEERNS4_IS6_EEED1Ev, symObjAddr: 0x331C, symBinAddr: 0x100003B0C, symSize: 0x2C }
  - { offsetInCU: 0x11639, offset: 0x11639, size: 0x8, addend: 0x0, symName: __ZNSt3__117__compressed_pairIPNS_6vectorINS_4pairIiiEENS_9allocatorIS3_EEEENS4_IS6_EEE5firstB7v160006Ev, symObjAddr: 0x3348, symBinAddr: 0x100003B38, symSize: 0x24 }
  - { offsetInCU: 0x1165F, offset: 0x1165F, size: 0x8, addend: 0x0, symName: __ZNSt3__122__compressed_pair_elemIPNS_6vectorINS_4pairIiiEENS_9allocatorIS3_EEEELi0ELb0EE5__getB7v160006Ev, symObjAddr: 0x336C, symBinAddr: 0x100003B5C, symSize: 0x14 }
  - { offsetInCU: 0x1169E, offset: 0x1169E, size: 0x8, addend: 0x0, symName: __ZNSt3__16vectorINS0_INS_4pairIiiEENS_9allocatorIS2_EEEENS3_IS5_EEE21_ConstructTransactionC1B7v160006ERS7_m, symObjAddr: 0x3380, symBinAddr: 0x100003B70, symSize: 0x3C }
  - { offsetInCU: 0x116E6, offset: 0x116E6, size: 0x8, addend: 0x0, symName: __ZNSt3__116allocator_traitsINS_9allocatorINS_6vectorINS_4pairIiiEENS1_IS4_EEEEEEE9constructB7v160006IS6_JEvvEEvRS7_PT_DpOT0_, symObjAddr: 0x33BC, symBinAddr: 0x100003BAC, symSize: 0x28 }
  - { offsetInCU: 0x11726, offset: 0x11726, size: 0x8, addend: 0x0, symName: __ZNSt3__16vectorINS0_INS_4pairIiiEENS_9allocatorIS2_EEEENS3_IS5_EEE21_ConstructTransactionD1B7v160006Ev, symObjAddr: 0x33E4, symBinAddr: 0x100003BD4, symSize: 0x2C }
  - { offsetInCU: 0x11750, offset: 0x11750, size: 0x8, addend: 0x0, symName: __ZNSt3__16vectorINS0_INS_4pairIiiEENS_9allocatorIS2_EEEENS3_IS5_EEE21_ConstructTransactionC2B7v160006ERS7_m, symObjAddr: 0x3410, symBinAddr: 0x100003C00, symSize: 0x4C }
  - { offsetInCU: 0x11798, offset: 0x11798, size: 0x8, addend: 0x0, symName: __ZNSt3__16vectorINS_4pairIiiEENS_9allocatorIS2_EEEC1B7v160006Ev, symObjAddr: 0x3490, symBinAddr: 0x100003C80, symSize: 0x2C }
  - { offsetInCU: 0x117C2, offset: 0x117C2, size: 0x8, addend: 0x0, symName: __ZNSt3__16vectorINS_4pairIiiEENS_9allocatorIS2_EEEC2B7v160006Ev, symObjAddr: 0x34BC, symBinAddr: 0x100003CAC, symSize: 0x58 }
  - { offsetInCU: 0x117F2, offset: 0x117F2, size: 0x8, addend: 0x0, symName: __ZNSt3__117__compressed_pairIPNS_4pairIiiEENS_9allocatorIS2_EEEC1B7v160006IDnNS_18__default_init_tagEEEOT_OT0_, symObjAddr: 0x3514, symBinAddr: 0x100003D04, symSize: 0x3C }
  - { offsetInCU: 0x1184A, offset: 0x1184A, size: 0x8, addend: 0x0, symName: __ZNSt3__117__compressed_pairIPNS_4pairIiiEENS_9allocatorIS2_EEEC2B7v160006IDnNS_18__default_init_tagEEEOT_OT0_, symObjAddr: 0x3560, symBinAddr: 0x100003D50, symSize: 0x40 }
  - { offsetInCU: 0x118A2, offset: 0x118A2, size: 0x8, addend: 0x0, symName: __ZNSt3__122__compressed_pair_elemIPNS_4pairIiiEELi0ELb0EEC2B7v160006IDnvEEOT_, symObjAddr: 0x35A0, symBinAddr: 0x100003D90, symSize: 0x1C }
  - { offsetInCU: 0x118E4, offset: 0x118E4, size: 0x8, addend: 0x0, symName: __ZNSt3__122__compressed_pair_elemINS_9allocatorINS_4pairIiiEEEELi1ELb1EEC2B7v160006ENS_18__default_init_tagE, symObjAddr: 0x35BC, symBinAddr: 0x100003DAC, symSize: 0x2C }
  - { offsetInCU: 0x11918, offset: 0x11918, size: 0x8, addend: 0x0, symName: __ZNSt3__19allocatorINS_4pairIiiEEEC2B7v160006Ev, symObjAddr: 0x35E8, symBinAddr: 0x100003DD8, symSize: 0x2C }
  - { offsetInCU: 0x11942, offset: 0x11942, size: 0x8, addend: 0x0, symName: __ZNSt3__116__non_trivial_ifILb1ENS_9allocatorINS_4pairIiiEEEEEC2B7v160006Ev, symObjAddr: 0x3614, symBinAddr: 0x100003E04, symSize: 0x14 }
  - { offsetInCU: 0x1196C, offset: 0x1196C, size: 0x8, addend: 0x0, symName: __ZNSt3__16vectorINS0_INS_4pairIiiEENS_9allocatorIS2_EEEENS3_IS5_EEE21_ConstructTransactionD2B7v160006Ev, symObjAddr: 0x3628, symBinAddr: 0x100003E18, symSize: 0x20 }
  - { offsetInCU: 0x11996, offset: 0x11996, size: 0x8, addend: 0x0, symName: __ZNKSt3__16vectorINS0_INS_4pairIiiEENS_9allocatorIS2_EEEENS3_IS5_EEE8max_sizeEv, symObjAddr: 0x3648, symBinAddr: 0x100003E38, symSize: 0x60 }
  - { offsetInCU: 0x119BE, offset: 0x119BE, size: 0x8, addend: 0x0, symName: __ZNKSt3__16vectorINS0_INS_4pairIiiEENS_9allocatorIS2_EEEENS3_IS5_EEE20__throw_length_errorB7v160006Ev, symObjAddr: 0x36A8, symBinAddr: 0x100003E98, symSize: 0x1C }
  - { offsetInCU: 0x119EE, offset: 0x119EE, size: 0x8, addend: 0x0, symName: __ZNSt3__116allocator_traitsINS_9allocatorINS_6vectorINS_4pairIiiEENS1_IS4_EEEEEEE8max_sizeB7v160006IS7_vvEEmRKS7_, symObjAddr: 0x371C, symBinAddr: 0x100003F0C, symSize: 0x28 }
  - { offsetInCU: 0x11A1A, offset: 0x11A1A, size: 0x8, addend: 0x0, symName: __ZNKSt3__16vectorINS0_INS_4pairIiiEENS_9allocatorIS2_EEEENS3_IS5_EEE7__allocB7v160006Ev, symObjAddr: 0x3744, symBinAddr: 0x100003F34, symSize: 0x28 }
  - { offsetInCU: 0x11A40, offset: 0x11A40, size: 0x8, addend: 0x0, symName: __ZNSt3__114numeric_limitsIlE3maxB7v160006Ev, symObjAddr: 0x376C, symBinAddr: 0x100003F5C, symSize: 0x14 }
  - { offsetInCU: 0x11A68, offset: 0x11A68, size: 0x8, addend: 0x0, symName: __ZNKSt3__16__lessImmEclB7v160006ERKmS3_, symObjAddr: 0x37D4, symBinAddr: 0x100003FC4, symSize: 0x34 }
  - { offsetInCU: 0x11AAA, offset: 0x11AAA, size: 0x8, addend: 0x0, symName: __ZNKSt3__117__compressed_pairIPNS_6vectorINS_4pairIiiEENS_9allocatorIS3_EEEENS4_IS6_EEE6secondB7v160006Ev, symObjAddr: 0x3808, symBinAddr: 0x100003FF8, symSize: 0x24 }
  - { offsetInCU: 0x11AD0, offset: 0x11AD0, size: 0x8, addend: 0x0, symName: __ZNKSt3__122__compressed_pair_elemINS_9allocatorINS_6vectorINS_4pairIiiEENS1_IS4_EEEEEELi1ELb1EE5__getB7v160006Ev, symObjAddr: 0x382C, symBinAddr: 0x10000401C, symSize: 0x14 }
  - { offsetInCU: 0x11AF6, offset: 0x11AF6, size: 0x8, addend: 0x0, symName: __ZNSt3__123__libcpp_numeric_limitsIlLb1EE3maxB7v160006Ev, symObjAddr: 0x3840, symBinAddr: 0x100004030, symSize: 0x8 }
  - { offsetInCU: 0x11B0A, offset: 0x11B0A, size: 0x8, addend: 0x0, symName: __ZNSt3__114__split_bufferINS_6vectorINS_4pairIiiEENS_9allocatorIS3_EEEERNS4_IS6_EEEC2EmmS8_, symObjAddr: 0x389C, symBinAddr: 0x10000408C, symSize: 0xE0 }
  - { offsetInCU: 0x11B7D, offset: 0x11B7D, size: 0x8, addend: 0x0, symName: __ZNSt3__117__compressed_pairIPNS_6vectorINS_4pairIiiEENS_9allocatorIS3_EEEERNS4_IS6_EEEC1B7v160006IDnS9_EEOT_OT0_, symObjAddr: 0x397C, symBinAddr: 0x10000416C, symSize: 0x3C }
  - { offsetInCU: 0x11BD5, offset: 0x11BD5, size: 0x8, addend: 0x0, symName: __ZNSt3__114__split_bufferINS_6vectorINS_4pairIiiEENS_9allocatorIS3_EEEERNS4_IS6_EEE7__allocB7v160006Ev, symObjAddr: 0x39F4, symBinAddr: 0x1000041E4, symSize: 0x28 }
  - { offsetInCU: 0x11BFB, offset: 0x11BFB, size: 0x8, addend: 0x0, symName: __ZNSt3__114__split_bufferINS_6vectorINS_4pairIiiEENS_9allocatorIS3_EEEERNS4_IS6_EEE9__end_capB7v160006Ev, symObjAddr: 0x3A1C, symBinAddr: 0x10000420C, symSize: 0x28 }
  - { offsetInCU: 0x11C21, offset: 0x11C21, size: 0x8, addend: 0x0, symName: __ZNSt3__117__compressed_pairIPNS_6vectorINS_4pairIiiEENS_9allocatorIS3_EEEERNS4_IS6_EEEC2B7v160006IDnS9_EEOT_OT0_, symObjAddr: 0x3A44, symBinAddr: 0x100004234, symSize: 0x48 }
  - { offsetInCU: 0x11C79, offset: 0x11C79, size: 0x8, addend: 0x0, symName: __ZNSt3__122__compressed_pair_elemIPNS_6vectorINS_4pairIiiEENS_9allocatorIS3_EEEELi0ELb0EEC2B7v160006IDnvEEOT_, symObjAddr: 0x3A8C, symBinAddr: 0x10000427C, symSize: 0x1C }
  - { offsetInCU: 0x11CBB, offset: 0x11CBB, size: 0x8, addend: 0x0, symName: __ZNSt3__122__compressed_pair_elemIRNS_9allocatorINS_6vectorINS_4pairIiiEENS1_IS4_EEEEEELi1ELb0EEC2B7v160006IS8_vEEOT_, symObjAddr: 0x3AA8, symBinAddr: 0x100004298, symSize: 0x20 }
  - { offsetInCU: 0x11CFD, offset: 0x11CFD, size: 0x8, addend: 0x0, symName: __ZNSt3__19allocatorINS_6vectorINS_4pairIiiEENS0_IS3_EEEEE17allocate_at_leastB7v160006Em, symObjAddr: 0x3B04, symBinAddr: 0x1000042F4, symSize: 0x40 }
  - { offsetInCU: 0x11D31, offset: 0x11D31, size: 0x8, addend: 0x0, symName: __ZNSt3__19allocatorINS_6vectorINS_4pairIiiEENS0_IS3_EEEEE8allocateB7v160006Em, symObjAddr: 0x3B44, symBinAddr: 0x100004334, symSize: 0x5C }
  - { offsetInCU: 0x11D65, offset: 0x11D65, size: 0x8, addend: 0x0, symName: __ZNSt3__117__compressed_pairIPNS_6vectorINS_4pairIiiEENS_9allocatorIS3_EEEERNS4_IS6_EEE6secondB7v160006Ev, symObjAddr: 0x3BA0, symBinAddr: 0x100004390, symSize: 0x28 }
  - { offsetInCU: 0x11D8B, offset: 0x11D8B, size: 0x8, addend: 0x0, symName: __ZNSt3__122__compressed_pair_elemIRNS_9allocatorINS_6vectorINS_4pairIiiEENS1_IS4_EEEEEELi1ELb0EE5__getB7v160006Ev, symObjAddr: 0x3BC8, symBinAddr: 0x1000043B8, symSize: 0x18 }
  - { offsetInCU: 0x11DB1, offset: 0x11DB1, size: 0x8, addend: 0x0, symName: __ZNSt3__117__compressed_pairIPNS_6vectorINS_4pairIiiEENS_9allocatorIS3_EEEERNS4_IS6_EEE5firstB7v160006Ev, symObjAddr: 0x3BE0, symBinAddr: 0x1000043D0, symSize: 0x24 }
  - { offsetInCU: 0x11DE1, offset: 0x11DE1, size: 0x8, addend: 0x0, symName: __ZNSt3__114__split_bufferINS_6vectorINS_4pairIiiEENS_9allocatorIS3_EEEERNS4_IS6_EEE21_ConstructTransactionC1B7v160006EPPS6_m, symObjAddr: 0x3C04, symBinAddr: 0x1000043F4, symSize: 0x3C }
  - { offsetInCU: 0x11E27, offset: 0x11E27, size: 0x8, addend: 0x0, symName: __ZNSt3__114__split_bufferINS_6vectorINS_4pairIiiEENS_9allocatorIS3_EEEERNS4_IS6_EEE21_ConstructTransactionD1B7v160006Ev, symObjAddr: 0x3C40, symBinAddr: 0x100004430, symSize: 0x2C }
  - { offsetInCU: 0x11E51, offset: 0x11E51, size: 0x8, addend: 0x0, symName: __ZNSt3__114__split_bufferINS_6vectorINS_4pairIiiEENS_9allocatorIS3_EEEERNS4_IS6_EEE21_ConstructTransactionC2B7v160006EPPS6_m, symObjAddr: 0x3C6C, symBinAddr: 0x10000445C, symSize: 0x4C }
  - { offsetInCU: 0x11E97, offset: 0x11E97, size: 0x8, addend: 0x0, symName: __ZNSt3__114__split_bufferINS_6vectorINS_4pairIiiEENS_9allocatorIS3_EEEERNS4_IS6_EEE21_ConstructTransactionD2B7v160006Ev, symObjAddr: 0x3CB8, symBinAddr: 0x1000044A8, symSize: 0x20 }
  - { offsetInCU: 0x11EC1, offset: 0x11EC1, size: 0x8, addend: 0x0, symName: __ZNSt3__116reverse_iteratorIPNS_6vectorINS_4pairIiiEENS_9allocatorIS3_EEEEEC1B7v160006ES7_, symObjAddr: 0x3E04, symBinAddr: 0x1000045F4, symSize: 0x34 }
  - { offsetInCU: 0x11EF9, offset: 0x11EF9, size: 0x8, addend: 0x0, symName: __ZNKSt3__116reverse_iteratorIPNS_6vectorINS_4pairIiiEENS_9allocatorIS3_EEEEE4baseB7v160006Ev, symObjAddr: 0x3E38, symBinAddr: 0x100004628, symSize: 0x18 }
  - { offsetInCU: 0x11F1F, offset: 0x11F1F, size: 0x8, addend: 0x0, symName: __ZNKSt3__16vectorINS0_INS_4pairIiiEENS_9allocatorIS2_EEEENS3_IS5_EEE14__annotate_newB7v160006Em, symObjAddr: 0x3E8C, symBinAddr: 0x10000467C, symSize: 0xC8 }
  - { offsetInCU: 0x11F54, offset: 0x11F54, size: 0x8, addend: 0x0, symName: __ZNSt3__129_AllocatorDestroyRangeReverseINS_9allocatorINS_6vectorINS_4pairIiiEENS1_IS4_EEEEEENS_16reverse_iteratorIPS6_EEEC1B7v160006ERS7_RSA_SD_, symObjAddr: 0x3FB0, symBinAddr: 0x1000047A0, symSize: 0x44 }
  - { offsetInCU: 0x11FAB, offset: 0x11FAB, size: 0x8, addend: 0x0, symName: __ZNSt3__116allocator_traitsINS_9allocatorINS_6vectorINS_4pairIiiEENS1_IS4_EEEEEEE9constructB7v160006IS6_JS6_EvvEEvRS7_PT_DpOT0_, symObjAddr: 0x403C, symBinAddr: 0x10000482C, symSize: 0x30 }
  - { offsetInCU: 0x12000, offset: 0x12000, size: 0x8, addend: 0x0, symName: __ZNKSt3__116reverse_iteratorIPNS_6vectorINS_4pairIiiEENS_9allocatorIS3_EEEEEdeB7v160006Ev, symObjAddr: 0x4090, symBinAddr: 0x100004880, symSize: 0x28 }
  - { offsetInCU: 0x12034, offset: 0x12034, size: 0x8, addend: 0x0, symName: __ZNSt3__116reverse_iteratorIPNS_6vectorINS_4pairIiiEENS_9allocatorIS3_EEEEEppB7v160006Ev, symObjAddr: 0x40B8, symBinAddr: 0x1000048A8, symSize: 0x20 }
  - { offsetInCU: 0x1205A, offset: 0x1205A, size: 0x8, addend: 0x0, symName: __ZNSt3__128__exception_guard_exceptionsINS_29_AllocatorDestroyRangeReverseINS_9allocatorINS_6vectorINS_4pairIiiEENS2_IS5_EEEEEENS_16reverse_iteratorIPS7_EEEEE10__completeB7v160006Ev, symObjAddr: 0x40D8, symBinAddr: 0x1000048C8, symSize: 0x1C }
  - { offsetInCU: 0x12080, offset: 0x12080, size: 0x8, addend: 0x0, symName: __ZNSt3__128__exception_guard_exceptionsINS_29_AllocatorDestroyRangeReverseINS_9allocatorINS_6vectorINS_4pairIiiEENS2_IS5_EEEEEENS_16reverse_iteratorIPS7_EEEEED1B7v160006Ev, symObjAddr: 0x40F4, symBinAddr: 0x1000048E4, symSize: 0x2C }
  - { offsetInCU: 0x120AA, offset: 0x120AA, size: 0x8, addend: 0x0, symName: __ZNSt3__128__exception_guard_exceptionsINS_29_AllocatorDestroyRangeReverseINS_9allocatorINS_6vectorINS_4pairIiiEENS2_IS5_EEEEEENS_16reverse_iteratorIPS7_EEEEEC1B7v160006ESC_, symObjAddr: 0x4120, symBinAddr: 0x100004910, symSize: 0x34 }
  - { offsetInCU: 0x120E3, offset: 0x120E3, size: 0x8, addend: 0x0, symName: __ZNSt3__128__exception_guard_exceptionsINS_29_AllocatorDestroyRangeReverseINS_9allocatorINS_6vectorINS_4pairIiiEENS2_IS5_EEEEEENS_16reverse_iteratorIPS7_EEEEEC2B7v160006ESC_, symObjAddr: 0x4154, symBinAddr: 0x100004944, symSize: 0x30 }
  - { offsetInCU: 0x1211C, offset: 0x1211C, size: 0x8, addend: 0x0, symName: __ZNSt3__129_AllocatorDestroyRangeReverseINS_9allocatorINS_6vectorINS_4pairIiiEENS1_IS4_EEEEEENS_16reverse_iteratorIPS6_EEEC2B7v160006ERS7_RSA_SD_, symObjAddr: 0x4184, symBinAddr: 0x100004974, symSize: 0x38 }
  - { offsetInCU: 0x12173, offset: 0x12173, size: 0x8, addend: 0x0, symName: __ZNSt3__16vectorINS_4pairIiiEENS_9allocatorIS2_EEEC1B7v160006EOS5_, symObjAddr: 0x41F8, symBinAddr: 0x1000049E8, symSize: 0x34 }
  - { offsetInCU: 0x121AE, offset: 0x121AE, size: 0x8, addend: 0x0, symName: __ZNSt3__16vectorINS_4pairIiiEENS_9allocatorIS2_EEEC2B7v160006EOS5_, symObjAddr: 0x422C, symBinAddr: 0x100004A1C, symSize: 0xDC }
  - { offsetInCU: 0x121EF, offset: 0x121EF, size: 0x8, addend: 0x0, symName: __ZNSt3__117__compressed_pairIPNS_4pairIiiEENS_9allocatorIS2_EEEC1B7v160006IDnS5_EEOT_OT0_, symObjAddr: 0x4308, symBinAddr: 0x100004AF8, symSize: 0x3C }
  - { offsetInCU: 0x12247, offset: 0x12247, size: 0x8, addend: 0x0, symName: __ZNSt3__16vectorINS_4pairIiiEENS_9allocatorIS2_EEE9__end_capB7v160006Ev, symObjAddr: 0x4358, symBinAddr: 0x100004B48, symSize: 0x28 }
  - { offsetInCU: 0x1226D, offset: 0x1226D, size: 0x8, addend: 0x0, symName: __ZNSt3__117__compressed_pairIPNS_4pairIiiEENS_9allocatorIS2_EEEC2B7v160006IDnS5_EEOT_OT0_, symObjAddr: 0x4380, symBinAddr: 0x100004B70, symSize: 0x44 }
  - { offsetInCU: 0x122C5, offset: 0x122C5, size: 0x8, addend: 0x0, symName: __ZNSt3__122__compressed_pair_elemINS_9allocatorINS_4pairIiiEEEELi1ELb1EEC2B7v160006IS4_vEEOT_, symObjAddr: 0x43C4, symBinAddr: 0x100004BB4, symSize: 0x18 }
  - { offsetInCU: 0x12307, offset: 0x12307, size: 0x8, addend: 0x0, symName: __ZNSt3__117__compressed_pairIPNS_4pairIiiEENS_9allocatorIS2_EEE5firstB7v160006Ev, symObjAddr: 0x43DC, symBinAddr: 0x100004BCC, symSize: 0x24 }
  - { offsetInCU: 0x1232D, offset: 0x1232D, size: 0x8, addend: 0x0, symName: __ZNSt3__122__compressed_pair_elemIPNS_4pairIiiEELi0ELb0EE5__getB7v160006Ev, symObjAddr: 0x4400, symBinAddr: 0x100004BF0, symSize: 0x14 }
  - { offsetInCU: 0x12358, offset: 0x12358, size: 0x8, addend: 0x0, symName: __ZNSt3__119__to_address_helperINS_16reverse_iteratorIPNS_6vectorINS_4pairIiiEENS_9allocatorIS4_EEEEEEvE6__callB7v160006ERKS9_, symObjAddr: 0x4414, symBinAddr: 0x100004C04, symSize: 0x38 }
  - { offsetInCU: 0x1237B, offset: 0x1237B, size: 0x8, addend: 0x0, symName: __ZNKSt3__116reverse_iteratorIPNS_6vectorINS_4pairIiiEENS_9allocatorIS3_EEEEEptB7v160006Ev, symObjAddr: 0x444C, symBinAddr: 0x100004C3C, symSize: 0x2C }
  - { offsetInCU: 0x123A1, offset: 0x123A1, size: 0x8, addend: 0x0, symName: __ZNSt3__128__exception_guard_exceptionsINS_29_AllocatorDestroyRangeReverseINS_9allocatorINS_6vectorINS_4pairIiiEENS2_IS5_EEEEEENS_16reverse_iteratorIPS7_EEEEED2B7v160006Ev, symObjAddr: 0x455C, symBinAddr: 0x100004D4C, symSize: 0x50 }
  - { offsetInCU: 0x123CB, offset: 0x123CB, size: 0x8, addend: 0x0, symName: __ZNKSt3__129_AllocatorDestroyRangeReverseINS_9allocatorINS_6vectorINS_4pairIiiEENS1_IS4_EEEEEENS_16reverse_iteratorIPS6_EEEclB7v160006Ev, symObjAddr: 0x45AC, symBinAddr: 0x100004D9C, symSize: 0xB4 }
  - { offsetInCU: 0x123F2, offset: 0x123F2, size: 0x8, addend: 0x0, symName: __ZNSt3__116reverse_iteratorINS0_IPNS_6vectorINS_4pairIiiEENS_9allocatorIS3_EEEEEEEC1B7v160006ES8_, symObjAddr: 0x46D0, symBinAddr: 0x100004EC0, symSize: 0x3C }
  - { offsetInCU: 0x1242A, offset: 0x1242A, size: 0x8, addend: 0x0, symName: __ZNSt3__116reverse_iteratorINS0_IPNS_6vectorINS_4pairIiiEENS_9allocatorIS3_EEEEEEEppB7v160006Ev, symObjAddr: 0x4790, symBinAddr: 0x100004F80, symSize: 0x30 }
  - { offsetInCU: 0x12450, offset: 0x12450, size: 0x8, addend: 0x0, symName: __ZNKSt3__116reverse_iteratorINS0_IPNS_6vectorINS_4pairIiiEENS_9allocatorIS3_EEEEEEE4baseB7v160006Ev, symObjAddr: 0x47C0, symBinAddr: 0x100004FB0, symSize: 0x24 }
  - { offsetInCU: 0x1247B, offset: 0x1247B, size: 0x8, addend: 0x0, symName: __ZNSt3__119__to_address_helperINS_16reverse_iteratorINS1_IPNS_6vectorINS_4pairIiiEENS_9allocatorIS4_EEEEEEEEvE6__callB7v160006ERKSA_, symObjAddr: 0x47E4, symBinAddr: 0x100004FD4, symSize: 0x38 }
  - { offsetInCU: 0x1249E, offset: 0x1249E, size: 0x8, addend: 0x0, symName: __ZNKSt3__116reverse_iteratorINS0_IPNS_6vectorINS_4pairIiiEENS_9allocatorIS3_EEEEEEEptB7v160006Ev, symObjAddr: 0x481C, symBinAddr: 0x10000500C, symSize: 0x4C }
  - { offsetInCU: 0x124C4, offset: 0x124C4, size: 0x8, addend: 0x0, symName: __ZNSt3__116reverse_iteratorIPNS_6vectorINS_4pairIiiEENS_9allocatorIS3_EEEEEpLB7v160006El, symObjAddr: 0x4944, symBinAddr: 0x100005134, symSize: 0x30 }
  - { offsetInCU: 0x124F8, offset: 0x124F8, size: 0x8, addend: 0x0, symName: __ZNSt3__116reverse_iteratorIPNS_6vectorINS_4pairIiiEENS_9allocatorIS3_EEEEEmmB7v160006Ev, symObjAddr: 0x4974, symBinAddr: 0x100005164, symSize: 0x20 }
  - { offsetInCU: 0x1251E, offset: 0x1251E, size: 0x8, addend: 0x0, symName: __ZNSt3__116reverse_iteratorINS0_IPNS_6vectorINS_4pairIiiEENS_9allocatorIS3_EEEEEEEC2B7v160006ES8_, symObjAddr: 0x4994, symBinAddr: 0x100005184, symSize: 0x2C }
  - { offsetInCU: 0x12556, offset: 0x12556, size: 0x8, addend: 0x0, symName: __ZNSt3__116reverse_iteratorIPNS_6vectorINS_4pairIiiEENS_9allocatorIS3_EEEEEC2B7v160006ES7_, symObjAddr: 0x49C0, symBinAddr: 0x1000051B0, symSize: 0x28 }
  - { offsetInCU: 0x1258E, offset: 0x1258E, size: 0x8, addend: 0x0, symName: __ZNSt3__114__split_bufferINS_6vectorINS_4pairIiiEENS_9allocatorIS3_EEEERNS4_IS6_EEED2Ev, symObjAddr: 0x49E8, symBinAddr: 0x1000051D8, symSize: 0x8C }
  - { offsetInCU: 0x125BA, offset: 0x125BA, size: 0x8, addend: 0x0, symName: __ZNSt3__114__split_bufferINS_6vectorINS_4pairIiiEENS_9allocatorIS3_EEEERNS4_IS6_EEE5clearB7v160006Ev, symObjAddr: 0x4A74, symBinAddr: 0x100005264, symSize: 0x28 }
  - { offsetInCU: 0x125E0, offset: 0x125E0, size: 0x8, addend: 0x0, symName: __ZNKSt3__114__split_bufferINS_6vectorINS_4pairIiiEENS_9allocatorIS3_EEEERNS4_IS6_EEE8capacityB7v160006Ev, symObjAddr: 0x4A9C, symBinAddr: 0x10000528C, symSize: 0x40 }
  - { offsetInCU: 0x12606, offset: 0x12606, size: 0x8, addend: 0x0, symName: __ZNSt3__114__split_bufferINS_6vectorINS_4pairIiiEENS_9allocatorIS3_EEEERNS4_IS6_EEE17__destruct_at_endB7v160006EPS6_, symObjAddr: 0x4ADC, symBinAddr: 0x1000052CC, symSize: 0x2C }
  - { offsetInCU: 0x1263A, offset: 0x1263A, size: 0x8, addend: 0x0, symName: __ZNSt3__114__split_bufferINS_6vectorINS_4pairIiiEENS_9allocatorIS3_EEEERNS4_IS6_EEE17__destruct_at_endB7v160006EPS6_NS_17integral_constantIbLb0EEE, symObjAddr: 0x4B08, symBinAddr: 0x1000052F8, symSize: 0x80 }
  - { offsetInCU: 0x1267A, offset: 0x1267A, size: 0x8, addend: 0x0, symName: __ZNKSt3__114__split_bufferINS_6vectorINS_4pairIiiEENS_9allocatorIS3_EEEERNS4_IS6_EEE9__end_capB7v160006Ev, symObjAddr: 0x4B88, symBinAddr: 0x100005378, symSize: 0x28 }
  - { offsetInCU: 0x126A0, offset: 0x126A0, size: 0x8, addend: 0x0, symName: __ZNKSt3__117__compressed_pairIPNS_6vectorINS_4pairIiiEENS_9allocatorIS3_EEEERNS4_IS6_EEE5firstB7v160006Ev, symObjAddr: 0x4BB0, symBinAddr: 0x1000053A0, symSize: 0x24 }
  - { offsetInCU: 0x126C6, offset: 0x126C6, size: 0x8, addend: 0x0, symName: __ZNSt3__16vectorINS0_INS_4pairIiiEENS_9allocatorIS2_EEEENS3_IS5_EEE27__invalidate_iterators_pastB7v160006EPS5_, symObjAddr: 0x4BD4, symBinAddr: 0x1000053C4, symSize: 0x14 }
  - { offsetInCU: 0x126FD, offset: 0x126FD, size: 0x8, addend: 0x0, symName: __ZNKSt3__16vectorINS0_INS_4pairIiiEENS_9allocatorIS2_EEEENS3_IS5_EEE17__annotate_shrinkB7v160006Em, symObjAddr: 0x4BE8, symBinAddr: 0x1000053D8, symSize: 0xD0 }
  - { offsetInCU: 0x12732, offset: 0x12732, size: 0x8, addend: 0x0, symName: __ZNSt3__16vectorINS_4pairIiiEENS_9allocatorIS2_EEE22__construct_one_at_endB7v160006IJS2_EEEvDpOT_, symObjAddr: 0x4CB8, symBinAddr: 0x1000054A8, symSize: 0x90 }
  - { offsetInCU: 0x12781, offset: 0x12781, size: 0x8, addend: 0x0, symName: __ZNSt3__16vectorINS_4pairIiiEENS_9allocatorIS2_EEE21__push_back_slow_pathIS2_EEvOT_, symObjAddr: 0x4D48, symBinAddr: 0x100005538, symSize: 0xD8 }
  - { offsetInCU: 0x127F8, offset: 0x127F8, size: 0x8, addend: 0x0, symName: __ZNSt3__16vectorINS_4pairIiiEENS_9allocatorIS2_EEE21_ConstructTransactionC1B7v160006ERS5_m, symObjAddr: 0x4E20, symBinAddr: 0x100005610, symSize: 0x3C }
  - { offsetInCU: 0x12840, offset: 0x12840, size: 0x8, addend: 0x0, symName: __ZNSt3__116allocator_traitsINS_9allocatorINS_4pairIiiEEEEE9constructB7v160006IS3_JS3_EvvEEvRS4_PT_DpOT0_, symObjAddr: 0x4E5C, symBinAddr: 0x10000564C, symSize: 0x30 }
  - { offsetInCU: 0x12895, offset: 0x12895, size: 0x8, addend: 0x0, symName: __ZNSt3__16vectorINS_4pairIiiEENS_9allocatorIS2_EEE21_ConstructTransactionD1B7v160006Ev, symObjAddr: 0x4E8C, symBinAddr: 0x10000567C, symSize: 0x2C }
  - { offsetInCU: 0x128BF, offset: 0x128BF, size: 0x8, addend: 0x0, symName: __ZNSt3__16vectorINS_4pairIiiEENS_9allocatorIS2_EEE21_ConstructTransactionC2B7v160006ERS5_m, symObjAddr: 0x4EB8, symBinAddr: 0x1000056A8, symSize: 0x44 }
  - { offsetInCU: 0x12907, offset: 0x12907, size: 0x8, addend: 0x0, symName: __ZNSt3__16vectorINS_4pairIiiEENS_9allocatorIS2_EEE21_ConstructTransactionD2B7v160006Ev, symObjAddr: 0x4F28, symBinAddr: 0x100005718, symSize: 0x20 }
  - { offsetInCU: 0x12931, offset: 0x12931, size: 0x8, addend: 0x0, symName: __ZNKSt3__16vectorINS_4pairIiiEENS_9allocatorIS2_EEE11__recommendB7v160006Em, symObjAddr: 0x4F48, symBinAddr: 0x100005738, symSize: 0xB4 }
  - { offsetInCU: 0x12986, offset: 0x12986, size: 0x8, addend: 0x0, symName: __ZNSt3__114__split_bufferINS_4pairIiiEERNS_9allocatorIS2_EEEC1EmmS5_, symObjAddr: 0x4FFC, symBinAddr: 0x1000057EC, symSize: 0x44 }
  - { offsetInCU: 0x129DC, offset: 0x129DC, size: 0x8, addend: 0x0, symName: __ZNSt3__114__split_bufferINS_4pairIiiEERNS_9allocatorIS2_EEED1Ev, symObjAddr: 0x5158, symBinAddr: 0x100005948, symSize: 0x2C }
  - { offsetInCU: 0x12A08, offset: 0x12A08, size: 0x8, addend: 0x0, symName: __ZNKSt3__16vectorINS_4pairIiiEENS_9allocatorIS2_EEE8max_sizeEv, symObjAddr: 0x5184, symBinAddr: 0x100005974, symSize: 0x60 }
  - { offsetInCU: 0x12A30, offset: 0x12A30, size: 0x8, addend: 0x0, symName: __ZNKSt3__16vectorINS_4pairIiiEENS_9allocatorIS2_EEE20__throw_length_errorB7v160006Ev, symObjAddr: 0x51E4, symBinAddr: 0x1000059D4, symSize: 0x1C }
  - { offsetInCU: 0x12A60, offset: 0x12A60, size: 0x8, addend: 0x0, symName: __ZNSt3__116allocator_traitsINS_9allocatorINS_4pairIiiEEEEE8max_sizeB7v160006IS4_vvEEmRKS4_, symObjAddr: 0x5200, symBinAddr: 0x1000059F0, symSize: 0x28 }
  - { offsetInCU: 0x12A8C, offset: 0x12A8C, size: 0x8, addend: 0x0, symName: __ZNKSt3__16vectorINS_4pairIiiEENS_9allocatorIS2_EEE7__allocB7v160006Ev, symObjAddr: 0x5228, symBinAddr: 0x100005A18, symSize: 0x28 }
  - { offsetInCU: 0x12AB2, offset: 0x12AB2, size: 0x8, addend: 0x0, symName: __ZNKSt3__117__compressed_pairIPNS_4pairIiiEENS_9allocatorIS2_EEE6secondB7v160006Ev, symObjAddr: 0x5250, symBinAddr: 0x100005A40, symSize: 0x24 }
  - { offsetInCU: 0x12AD8, offset: 0x12AD8, size: 0x8, addend: 0x0, symName: __ZNKSt3__122__compressed_pair_elemINS_9allocatorINS_4pairIiiEEEELi1ELb1EE5__getB7v160006Ev, symObjAddr: 0x5274, symBinAddr: 0x100005A64, symSize: 0x14 }
  - { offsetInCU: 0x12AFE, offset: 0x12AFE, size: 0x8, addend: 0x0, symName: __ZNSt3__114__split_bufferINS_4pairIiiEERNS_9allocatorIS2_EEEC2EmmS5_, symObjAddr: 0x5288, symBinAddr: 0x100005A78, symSize: 0xD4 }
  - { offsetInCU: 0x12B71, offset: 0x12B71, size: 0x8, addend: 0x0, symName: __ZNSt3__117__compressed_pairIPNS_4pairIiiEERNS_9allocatorIS2_EEEC1B7v160006IDnS6_EEOT_OT0_, symObjAddr: 0x535C, symBinAddr: 0x100005B4C, symSize: 0x3C }
  - { offsetInCU: 0x12BC9, offset: 0x12BC9, size: 0x8, addend: 0x0, symName: __ZNSt3__114__split_bufferINS_4pairIiiEERNS_9allocatorIS2_EEE7__allocB7v160006Ev, symObjAddr: 0x53D4, symBinAddr: 0x100005BC4, symSize: 0x28 }
  - { offsetInCU: 0x12BEF, offset: 0x12BEF, size: 0x8, addend: 0x0, symName: __ZNSt3__114__split_bufferINS_4pairIiiEERNS_9allocatorIS2_EEE9__end_capB7v160006Ev, symObjAddr: 0x53FC, symBinAddr: 0x100005BEC, symSize: 0x28 }
  - { offsetInCU: 0x12C15, offset: 0x12C15, size: 0x8, addend: 0x0, symName: __ZNSt3__117__compressed_pairIPNS_4pairIiiEERNS_9allocatorIS2_EEEC2B7v160006IDnS6_EEOT_OT0_, symObjAddr: 0x5424, symBinAddr: 0x100005C14, symSize: 0x48 }
  - { offsetInCU: 0x12C6D, offset: 0x12C6D, size: 0x8, addend: 0x0, symName: __ZNSt3__122__compressed_pair_elemIRNS_9allocatorINS_4pairIiiEEEELi1ELb0EEC2B7v160006IS5_vEEOT_, symObjAddr: 0x546C, symBinAddr: 0x100005C5C, symSize: 0x20 }
  - { offsetInCU: 0x12CAF, offset: 0x12CAF, size: 0x8, addend: 0x0, symName: __ZNSt3__19allocatorINS_4pairIiiEEE17allocate_at_leastB7v160006Em, symObjAddr: 0x54C8, symBinAddr: 0x100005CB8, symSize: 0x40 }
  - { offsetInCU: 0x12CE3, offset: 0x12CE3, size: 0x8, addend: 0x0, symName: __ZNSt3__19allocatorINS_4pairIiiEEE8allocateB7v160006Em, symObjAddr: 0x5508, symBinAddr: 0x100005CF8, symSize: 0x58 }
  - { offsetInCU: 0x12D17, offset: 0x12D17, size: 0x8, addend: 0x0, symName: __ZNSt3__117__compressed_pairIPNS_4pairIiiEERNS_9allocatorIS2_EEE6secondB7v160006Ev, symObjAddr: 0x5560, symBinAddr: 0x100005D50, symSize: 0x28 }
  - { offsetInCU: 0x12D3D, offset: 0x12D3D, size: 0x8, addend: 0x0, symName: __ZNSt3__122__compressed_pair_elemIRNS_9allocatorINS_4pairIiiEEEELi1ELb0EE5__getB7v160006Ev, symObjAddr: 0x5588, symBinAddr: 0x100005D78, symSize: 0x18 }
  - { offsetInCU: 0x12D63, offset: 0x12D63, size: 0x8, addend: 0x0, symName: __ZNSt3__117__compressed_pairIPNS_4pairIiiEERNS_9allocatorIS2_EEE5firstB7v160006Ev, symObjAddr: 0x55A0, symBinAddr: 0x100005D90, symSize: 0x24 }
  - { offsetInCU: 0x12D89, offset: 0x12D89, size: 0x8, addend: 0x0, symName: __ZNSt3__116reverse_iteratorIPNS_4pairIiiEEEC1B7v160006ES3_, symObjAddr: 0x56F0, symBinAddr: 0x100005EE0, symSize: 0x34 }
  - { offsetInCU: 0x12DC1, offset: 0x12DC1, size: 0x8, addend: 0x0, symName: __ZNKSt3__116reverse_iteratorIPNS_4pairIiiEEE4baseB7v160006Ev, symObjAddr: 0x5724, symBinAddr: 0x100005F14, symSize: 0x18 }
  - { offsetInCU: 0x12DE7, offset: 0x12DE7, size: 0x8, addend: 0x0, symName: __ZNKSt3__16vectorINS_4pairIiiEENS_9allocatorIS2_EEE14__annotate_newB7v160006Em, symObjAddr: 0x5778, symBinAddr: 0x100005F68, symSize: 0xAC }
  - { offsetInCU: 0x12E1C, offset: 0x12E1C, size: 0x8, addend: 0x0, symName: __ZNSt3__129_AllocatorDestroyRangeReverseINS_9allocatorINS_4pairIiiEEEENS_16reverse_iteratorIPS3_EEEC1B7v160006ERS4_RS7_SA_, symObjAddr: 0x5880, symBinAddr: 0x100006070, symSize: 0x44 }
  - { offsetInCU: 0x12E73, offset: 0x12E73, size: 0x8, addend: 0x0, symName: __ZNKSt3__116reverse_iteratorIPNS_4pairIiiEEEdeB7v160006Ev, symObjAddr: 0x5930, symBinAddr: 0x100006120, symSize: 0x28 }
  - { offsetInCU: 0x12EA7, offset: 0x12EA7, size: 0x8, addend: 0x0, symName: __ZNSt3__116reverse_iteratorIPNS_4pairIiiEEEppB7v160006Ev, symObjAddr: 0x5958, symBinAddr: 0x100006148, symSize: 0x20 }
  - { offsetInCU: 0x12ECD, offset: 0x12ECD, size: 0x8, addend: 0x0, symName: __ZNSt3__128__exception_guard_exceptionsINS_29_AllocatorDestroyRangeReverseINS_9allocatorINS_4pairIiiEEEENS_16reverse_iteratorIPS4_EEEEE10__completeB7v160006Ev, symObjAddr: 0x5978, symBinAddr: 0x100006168, symSize: 0x1C }
  - { offsetInCU: 0x12EF3, offset: 0x12EF3, size: 0x8, addend: 0x0, symName: __ZNSt3__128__exception_guard_exceptionsINS_29_AllocatorDestroyRangeReverseINS_9allocatorINS_4pairIiiEEEENS_16reverse_iteratorIPS4_EEEEED1B7v160006Ev, symObjAddr: 0x5994, symBinAddr: 0x100006184, symSize: 0x2C }
  - { offsetInCU: 0x12F1D, offset: 0x12F1D, size: 0x8, addend: 0x0, symName: __ZNSt3__128__exception_guard_exceptionsINS_29_AllocatorDestroyRangeReverseINS_9allocatorINS_4pairIiiEEEENS_16reverse_iteratorIPS4_EEEEEC1B7v160006ES9_, symObjAddr: 0x59C0, symBinAddr: 0x1000061B0, symSize: 0x34 }
  - { offsetInCU: 0x12F56, offset: 0x12F56, size: 0x8, addend: 0x0, symName: __ZNSt3__128__exception_guard_exceptionsINS_29_AllocatorDestroyRangeReverseINS_9allocatorINS_4pairIiiEEEENS_16reverse_iteratorIPS4_EEEEEC2B7v160006ES9_, symObjAddr: 0x59F4, symBinAddr: 0x1000061E4, symSize: 0x30 }
  - { offsetInCU: 0x12F8F, offset: 0x12F8F, size: 0x8, addend: 0x0, symName: __ZNSt3__129_AllocatorDestroyRangeReverseINS_9allocatorINS_4pairIiiEEEENS_16reverse_iteratorIPS3_EEEC2B7v160006ERS4_RS7_SA_, symObjAddr: 0x5A24, symBinAddr: 0x100006214, symSize: 0x38 }
  - { offsetInCU: 0x12FEB, offset: 0x12FEB, size: 0x8, addend: 0x0, symName: __ZNSt3__119__to_address_helperINS_16reverse_iteratorIPNS_4pairIiiEEEEvE6__callB7v160006ERKS5_, symObjAddr: 0x5A5C, symBinAddr: 0x10000624C, symSize: 0x38 }
  - { offsetInCU: 0x1300E, offset: 0x1300E, size: 0x8, addend: 0x0, symName: __ZNKSt3__116reverse_iteratorIPNS_4pairIiiEEEptB7v160006Ev, symObjAddr: 0x5A94, symBinAddr: 0x100006284, symSize: 0x2C }
  - { offsetInCU: 0x13034, offset: 0x13034, size: 0x8, addend: 0x0, symName: __ZNSt3__128__exception_guard_exceptionsINS_29_AllocatorDestroyRangeReverseINS_9allocatorINS_4pairIiiEEEENS_16reverse_iteratorIPS4_EEEEED2B7v160006Ev, symObjAddr: 0x5B88, symBinAddr: 0x100006378, symSize: 0x50 }
  - { offsetInCU: 0x1305E, offset: 0x1305E, size: 0x8, addend: 0x0, symName: __ZNKSt3__129_AllocatorDestroyRangeReverseINS_9allocatorINS_4pairIiiEEEENS_16reverse_iteratorIPS3_EEEclB7v160006Ev, symObjAddr: 0x5BD8, symBinAddr: 0x1000063C8, symSize: 0xB4 }
  - { offsetInCU: 0x13085, offset: 0x13085, size: 0x8, addend: 0x0, symName: __ZNSt3__116reverse_iteratorINS0_IPNS_4pairIiiEEEEEC1B7v160006ES4_, symObjAddr: 0x5CFC, symBinAddr: 0x1000064EC, symSize: 0x3C }
  - { offsetInCU: 0x130BD, offset: 0x130BD, size: 0x8, addend: 0x0, symName: __ZNSt3__116reverse_iteratorINS0_IPNS_4pairIiiEEEEEppB7v160006Ev, symObjAddr: 0x5DBC, symBinAddr: 0x1000065AC, symSize: 0x30 }
  - { offsetInCU: 0x130E3, offset: 0x130E3, size: 0x8, addend: 0x0, symName: __ZNKSt3__116reverse_iteratorINS0_IPNS_4pairIiiEEEEE4baseB7v160006Ev, symObjAddr: 0x5DEC, symBinAddr: 0x1000065DC, symSize: 0x24 }
  - { offsetInCU: 0x1310E, offset: 0x1310E, size: 0x8, addend: 0x0, symName: __ZNSt3__119__to_address_helperINS_16reverse_iteratorINS1_IPNS_4pairIiiEEEEEEvE6__callB7v160006ERKS6_, symObjAddr: 0x5E10, symBinAddr: 0x100006600, symSize: 0x38 }
  - { offsetInCU: 0x13131, offset: 0x13131, size: 0x8, addend: 0x0, symName: __ZNKSt3__116reverse_iteratorINS0_IPNS_4pairIiiEEEEEptB7v160006Ev, symObjAddr: 0x5E48, symBinAddr: 0x100006638, symSize: 0x4C }
  - { offsetInCU: 0x13157, offset: 0x13157, size: 0x8, addend: 0x0, symName: __ZNSt3__116reverse_iteratorIPNS_4pairIiiEEEpLB7v160006El, symObjAddr: 0x5F70, symBinAddr: 0x100006760, symSize: 0x30 }
  - { offsetInCU: 0x1318B, offset: 0x1318B, size: 0x8, addend: 0x0, symName: __ZNSt3__116reverse_iteratorIPNS_4pairIiiEEEmmB7v160006Ev, symObjAddr: 0x5FA0, symBinAddr: 0x100006790, symSize: 0x20 }
  - { offsetInCU: 0x131B1, offset: 0x131B1, size: 0x8, addend: 0x0, symName: __ZNSt3__116reverse_iteratorINS0_IPNS_4pairIiiEEEEEC2B7v160006ES4_, symObjAddr: 0x5FC0, symBinAddr: 0x1000067B0, symSize: 0x2C }
  - { offsetInCU: 0x131E9, offset: 0x131E9, size: 0x8, addend: 0x0, symName: __ZNSt3__116reverse_iteratorIPNS_4pairIiiEEEC2B7v160006ES3_, symObjAddr: 0x5FEC, symBinAddr: 0x1000067DC, symSize: 0x28 }
  - { offsetInCU: 0x13221, offset: 0x13221, size: 0x8, addend: 0x0, symName: __ZNSt3__114__split_bufferINS_4pairIiiEERNS_9allocatorIS2_EEED2Ev, symObjAddr: 0x6014, symBinAddr: 0x100006804, symSize: 0x8C }
  - { offsetInCU: 0x1324D, offset: 0x1324D, size: 0x8, addend: 0x0, symName: __ZNSt3__114__split_bufferINS_4pairIiiEERNS_9allocatorIS2_EEE5clearB7v160006Ev, symObjAddr: 0x60A0, symBinAddr: 0x100006890, symSize: 0x28 }
  - { offsetInCU: 0x13273, offset: 0x13273, size: 0x8, addend: 0x0, symName: __ZNKSt3__114__split_bufferINS_4pairIiiEERNS_9allocatorIS2_EEE8capacityB7v160006Ev, symObjAddr: 0x60C8, symBinAddr: 0x1000068B8, symSize: 0x40 }
  - { offsetInCU: 0x13299, offset: 0x13299, size: 0x8, addend: 0x0, symName: __ZNSt3__114__split_bufferINS_4pairIiiEERNS_9allocatorIS2_EEE17__destruct_at_endB7v160006EPS2_, symObjAddr: 0x6108, symBinAddr: 0x1000068F8, symSize: 0x2C }
  - { offsetInCU: 0x132CD, offset: 0x132CD, size: 0x8, addend: 0x0, symName: __ZNSt3__114__split_bufferINS_4pairIiiEERNS_9allocatorIS2_EEE17__destruct_at_endB7v160006EPS2_NS_17integral_constantIbLb0EEE, symObjAddr: 0x6134, symBinAddr: 0x100006924, symSize: 0x80 }
  - { offsetInCU: 0x1330D, offset: 0x1330D, size: 0x8, addend: 0x0, symName: __ZNKSt3__114__split_bufferINS_4pairIiiEERNS_9allocatorIS2_EEE9__end_capB7v160006Ev, symObjAddr: 0x61B4, symBinAddr: 0x1000069A4, symSize: 0x28 }
  - { offsetInCU: 0x13333, offset: 0x13333, size: 0x8, addend: 0x0, symName: __ZNKSt3__117__compressed_pairIPNS_4pairIiiEERNS_9allocatorIS2_EEE5firstB7v160006Ev, symObjAddr: 0x61DC, symBinAddr: 0x1000069CC, symSize: 0x24 }
  - { offsetInCU: 0x13359, offset: 0x13359, size: 0x8, addend: 0x0, symName: __ZNSt3__14pairIiiEC2B7v160006IRibLPv0EEEOT_OT0_, symObjAddr: 0x6200, symBinAddr: 0x1000069F0, symSize: 0x38 }
  - { offsetInCU: 0x1343C, offset: 0x1343C, size: 0x8, addend: 0x0, symName: __ZNKSt3__113basic_istreamIcNS_11char_traitsIcEEE6sentrycvbB7v160006Ev, symObjAddr: 0x6238, symBinAddr: 0x100006A28, symSize: 0x1C }
  - { offsetInCU: 0x13462, offset: 0x13462, size: 0x8, addend: 0x0, symName: __ZNKSt3__19basic_iosIcNS_11char_traitsIcEEE5rdbufB7v160006Ev, symObjAddr: 0x6254, symBinAddr: 0x100006A44, symSize: 0x24 }
  - { offsetInCU: 0x1348A, offset: 0x1348A, size: 0x8, addend: 0x0, symName: __ZNSt3__115basic_streambufIcNS_11char_traitsIcEEE6sbumpcB7v160006Ev, symObjAddr: 0x6278, symBinAddr: 0x100006A68, symSize: 0x78 }
  - { offsetInCU: 0x134B0, offset: 0x134B0, size: 0x8, addend: 0x0, symName: __ZNSt3__111char_traitsIcE11eq_int_typeEii, symObjAddr: 0x62F0, symBinAddr: 0x100006AE0, symSize: 0x28 }
  - { offsetInCU: 0x134E1, offset: 0x134E1, size: 0x8, addend: 0x0, symName: __ZNSt3__111char_traitsIcE3eofEv, symObjAddr: 0x6318, symBinAddr: 0x100006B08, symSize: 0x8 }
  - { offsetInCU: 0x134F5, offset: 0x134F5, size: 0x8, addend: 0x0, symName: __ZNSt3__111char_traitsIcE12to_char_typeEi, symObjAddr: 0x6320, symBinAddr: 0x100006B10, symSize: 0x18 }
  - { offsetInCU: 0x13518, offset: 0x13518, size: 0x8, addend: 0x0, symName: __ZNSt3__18ios_base18__setstate_nothrowB7v160006Ej, symObjAddr: 0x6338, symBinAddr: 0x100006B28, symSize: 0x64 }
  - { offsetInCU: 0x1354D, offset: 0x1354D, size: 0x8, addend: 0x0, symName: __ZNKSt3__19basic_iosIcNS_11char_traitsIcEEE10exceptionsB7v160006Ev, symObjAddr: 0x639C, symBinAddr: 0x100006B8C, symSize: 0x24 }
  - { offsetInCU: 0x13573, offset: 0x13573, size: 0x8, addend: 0x0, symName: __ZNSt3__19basic_iosIcNS_11char_traitsIcEEE8setstateB7v160006Ej, symObjAddr: 0x63C0, symBinAddr: 0x100006BB0, symSize: 0x2C }
  - { offsetInCU: 0x135A8, offset: 0x135A8, size: 0x8, addend: 0x0, symName: __ZNKSt3__18ios_base5rdbufB7v160006Ev, symObjAddr: 0x63EC, symBinAddr: 0x100006BDC, symSize: 0x18 }
  - { offsetInCU: 0x135CE, offset: 0x135CE, size: 0x8, addend: 0x0, symName: __ZNSt3__111char_traitsIcE11to_int_typeEc, symObjAddr: 0x6404, symBinAddr: 0x100006BF4, symSize: 0x14 }
  - { offsetInCU: 0x135F1, offset: 0x135F1, size: 0x8, addend: 0x0, symName: __ZNKSt3__18ios_base10exceptionsB7v160006Ev, symObjAddr: 0x6418, symBinAddr: 0x100006C08, symSize: 0x18 }
  - { offsetInCU: 0x13619, offset: 0x13619, size: 0x8, addend: 0x0, symName: __ZNSt3__18ios_base8setstateB7v160006Ej, symObjAddr: 0x6430, symBinAddr: 0x100006C20, symSize: 0x34 }
  - { offsetInCU: 0x13669, offset: 0x13669, size: 0x8, addend: 0x0, symName: __ZNKSt3__113basic_ostreamIcNS_11char_traitsIcEEE6sentrycvbB7v160006Ev, symObjAddr: 0x6650, symBinAddr: 0x100006E40, symSize: 0x1C }
  - { offsetInCU: 0x1368F, offset: 0x1368F, size: 0x8, addend: 0x0, symName: __ZNSt3__119ostreambuf_iteratorIcNS_11char_traitsIcEEEC1B7v160006ERNS_13basic_ostreamIcS2_EE, symObjAddr: 0x68AC, symBinAddr: 0x10000709C, symSize: 0x34 }
  - { offsetInCU: 0x136C7, offset: 0x136C7, size: 0x8, addend: 0x0, symName: __ZNKSt3__18ios_base5flagsB7v160006Ev, symObjAddr: 0x68E0, symBinAddr: 0x1000070D0, symSize: 0x18 }
  - { offsetInCU: 0x136EF, offset: 0x136EF, size: 0x8, addend: 0x0, symName: __ZNKSt3__19basic_iosIcNS_11char_traitsIcEEE4fillB7v160006Ev, symObjAddr: 0x68F8, symBinAddr: 0x1000070E8, symSize: 0x64 }
  - { offsetInCU: 0x13717, offset: 0x13717, size: 0x8, addend: 0x0, symName: __ZNKSt3__119ostreambuf_iteratorIcNS_11char_traitsIcEEE6failedB7v160006Ev, symObjAddr: 0x695C, symBinAddr: 0x10000714C, symSize: 0x24 }
  - { offsetInCU: 0x1373D, offset: 0x1373D, size: 0x8, addend: 0x0, symName: __ZNKSt3__18ios_base5widthB7v160006Ev, symObjAddr: 0x6980, symBinAddr: 0x100007170, symSize: 0x18 }
  - { offsetInCU: 0x13765, offset: 0x13765, size: 0x8, addend: 0x0, symName: __ZNSt3__115basic_streambufIcNS_11char_traitsIcEEE5sputnB7v160006EPKcl, symObjAddr: 0x6998, symBinAddr: 0x100007188, symSize: 0x3C }
  - { offsetInCU: 0x137A7, offset: 0x137A7, size: 0x8, addend: 0x0, symName: __ZNSt3__112basic_stringIcNS_11char_traitsIcEENS_9allocatorIcEEEC1B7v160006Emc, symObjAddr: 0x69D4, symBinAddr: 0x1000071C4, symSize: 0x3C }
  - { offsetInCU: 0x137EF, offset: 0x137EF, size: 0x8, addend: 0x0, symName: __ZNSt3__112basic_stringIcNS_11char_traitsIcEENS_9allocatorIcEEE4dataB7v160006Ev, symObjAddr: 0x6A10, symBinAddr: 0x100007200, symSize: 0x28 }
  - { offsetInCU: 0x13815, offset: 0x13815, size: 0x8, addend: 0x0, symName: __ZNSt3__18ios_base5widthB7v160006El, symObjAddr: 0x6A38, symBinAddr: 0x100007228, symSize: 0x2C }
  - { offsetInCU: 0x1385B, offset: 0x1385B, size: 0x8, addend: 0x0, symName: __ZNSt3__112basic_stringIcNS_11char_traitsIcEENS_9allocatorIcEEEC2B7v160006Emc, symObjAddr: 0x6A64, symBinAddr: 0x100007254, symSize: 0x54 }
  - { offsetInCU: 0x138A3, offset: 0x138A3, size: 0x8, addend: 0x0, symName: __ZNSt3__117__compressed_pairINS_12basic_stringIcNS_11char_traitsIcEENS_9allocatorIcEEE5__repES5_EC1B7v160006INS_18__default_init_tagESA_EEOT_OT0_, symObjAddr: 0x6AB8, symBinAddr: 0x1000072A8, symSize: 0x3C }
  - { offsetInCU: 0x138FB, offset: 0x138FB, size: 0x8, addend: 0x0, symName: __ZNSt3__117__compressed_pairINS_12basic_stringIcNS_11char_traitsIcEENS_9allocatorIcEEE5__repES5_EC2B7v160006INS_18__default_init_tagESA_EEOT_OT0_, symObjAddr: 0x6AF4, symBinAddr: 0x1000072E4, symSize: 0x3C }
  - { offsetInCU: 0x13953, offset: 0x13953, size: 0x8, addend: 0x0, symName: __ZNSt3__122__compressed_pair_elemINS_9allocatorIcEELi1ELb1EEC2B7v160006ENS_18__default_init_tagE, symObjAddr: 0x6B30, symBinAddr: 0x100007320, symSize: 0x2C }
  - { offsetInCU: 0x13987, offset: 0x13987, size: 0x8, addend: 0x0, symName: __ZNSt3__19allocatorIcEC2B7v160006Ev, symObjAddr: 0x6B5C, symBinAddr: 0x10000734C, symSize: 0x2C }
  - { offsetInCU: 0x139B1, offset: 0x139B1, size: 0x8, addend: 0x0, symName: __ZNSt3__116__non_trivial_ifILb1ENS_9allocatorIcEEEC2B7v160006Ev, symObjAddr: 0x6B88, symBinAddr: 0x100007378, symSize: 0x14 }
  - { offsetInCU: 0x139DB, offset: 0x139DB, size: 0x8, addend: 0x0, symName: __ZNSt3__119ostreambuf_iteratorIcNS_11char_traitsIcEEEC2B7v160006ERNS_13basic_ostreamIcS2_EE, symObjAddr: 0x6B9C, symBinAddr: 0x10000738C, symSize: 0x54 }
  - { offsetInCU: 0x13A13, offset: 0x13A13, size: 0x8, addend: 0x0, symName: __ZNKSt3__19basic_iosIcNS_11char_traitsIcEEE5widenB7v160006Ec, symObjAddr: 0x6BF0, symBinAddr: 0x1000073E0, symSize: 0x84 }
  - { offsetInCU: 0x13A81, offset: 0x13A81, size: 0x8, addend: 0x0, symName: __ZNKSt3__15ctypeIcE5widenB7v160006Ec, symObjAddr: 0x6CA0, symBinAddr: 0x100007490, symSize: 0x38 }
...
