---
triple:          'arm64-apple-darwin'
binary-path:     '/Users/rohakdebnath/Desktop/Cpp /USACO/socialdistancing'
relocations:
  - { offsetInCU: 0x54, offset: 0x54, size: 0x8, addend: 0x0, symName: __ZNSt3__117__synth_three_wayB7v160006E, symObjAddr: 0x5635, symBinAddr: 0x100007C85, symSize: 0x0 }
  - { offsetInCU: 0x376B, offset: 0x376B, size: 0x8, addend: 0x0, symName: __ZNSt3__16copy_nB7v160006IPKcmPcEENS_9enable_ifIXsr33__is_cpp17_random_access_iteratorIT_EE5valueET1_E4typeES5_T0_S6_, symObjAddr: 0x13AC, symBinAddr: 0x100003810, symSize: 0x44 }
  - { offsetInCU: 0x4AD2, offset: 0x4AD2, size: 0x8, addend: 0x0, symName: __ZNSt3__111__introsortINS_17_ClassicAlgPolicyERNS_6__lessINS_4pairIxxEES4_EEPS4_EEvT1_S8_T0_NS_15iterator_traitsIS8_E15difference_typeE, symObjAddr: 0x2ED4, symBinAddr: 0x100005338, symSize: 0x6B8 }
  - { offsetInCU: 0x4C2D, offset: 0x4C2D, size: 0x8, addend: 0x0, symName: __ZNSt3__118__insertion_sort_3B7v160006INS_17_ClassicAlgPolicyERNS_6__lessINS_4pairIxxEES4_EEPS4_EEvT1_S8_T0_, symObjAddr: 0x3710, symBinAddr: 0x100005B74, symSize: 0x144 }
  - { offsetInCU: 0x4D00, offset: 0x4D00, size: 0x8, addend: 0x0, symName: __ZNSt3__111__sift_downB7v160006INS_17_ClassicAlgPolicyERNS_6__lessINS_4pairIxxEES4_EEPS4_EEvT1_OT0_NS_15iterator_traitsIS8_E15difference_typeES8_, symObjAddr: 0x4334, symBinAddr: 0x100006798, symSize: 0x20C }
  - { offsetInCU: 0x4DAD, offset: 0x4DAD, size: 0x8, addend: 0x0, symName: __ZNSt3__117__floyd_sift_downB7v160006INS_17_ClassicAlgPolicyERNS_6__lessINS_4pairIxxEES4_EEPS4_EET1_S8_OT0_NS_15iterator_traitsIS8_E15difference_typeE, symObjAddr: 0x46C4, symBinAddr: 0x100006B28, symSize: 0x100 }
  - { offsetInCU: 0x4E45, offset: 0x4E45, size: 0x8, addend: 0x0, symName: __ZNSt3__127__insertion_sort_incompleteIRNS_6__lessINS_4pairIxxEES3_EEPS3_EEbT0_S7_T_, symObjAddr: 0x3A80, symBinAddr: 0x100005EE4, symSize: 0x310 }
  - { offsetInCU: 0x4F4C, offset: 0x4F4C, size: 0x8, addend: 0x0, symName: __ZNSt3__124__put_character_sequenceB7v160006IcNS_11char_traitsIcEEEERNS_13basic_ostreamIT_T0_EES7_PKS4_m, symObjAddr: 0x4C2C, symBinAddr: 0x100007090, symSize: 0x1EC }
  - { offsetInCU: 0x6D95, offset: 0x6D95, size: 0x8, addend: 0x0, symName: __ZNSt3__1plB7v160006IcNS_11char_traitsIcEENS_9allocatorIcEEEENS_12basic_stringIT_T0_T1_EERKS9_PKS6_, symObjAddr: 0x178, symBinAddr: 0x1000025DC, symSize: 0x11C }
  - { offsetInCU: 0x6E36, offset: 0x6E36, size: 0x8, addend: 0x0, symName: __ZNSt3__14sortB7v160006INS_11__wrap_iterIPNS_4pairIxxEEEEEEvT_S6_, symObjAddr: 0x698, symBinAddr: 0x100002AFC, symSize: 0x3C }
  - { offsetInCU: 0x6E78, offset: 0x6E78, size: 0x8, addend: 0x0, symName: __ZNSt3__13maxB7v160006IxEERKT_S3_S3_, symObjAddr: 0x734, symBinAddr: 0x100002B98, symSize: 0x2C }
  - { offsetInCU: 0x6EBB, offset: 0x6EBB, size: 0x8, addend: 0x0, symName: __ZNSt3__1lsB7v160006INS_11char_traitsIcEEEERNS_13basic_ostreamIcT_EES6_c, symObjAddr: 0x760, symBinAddr: 0x100002BC4, symSize: 0x34 }
  - { offsetInCU: 0x6F01, offset: 0x6F01, size: 0x8, addend: 0x0, symName: __ZNSt3__112__to_addressB7v160006IcEEPT_S2_, symObjAddr: 0x984, symBinAddr: 0x100002DE8, symSize: 0x14 }
  - { offsetInCU: 0x6F36, offset: 0x6F36, size: 0x8, addend: 0x0, symName: __ZNSt3__118__constexpr_strlenB7v160006EPKc, symObjAddr: 0xAB4, symBinAddr: 0x100002F18, symSize: 0x24 }
  - { offsetInCU: 0x6F62, offset: 0x6F62, size: 0x8, addend: 0x0, symName: __ZNSt3__119__debug_db_insert_cB7v160006INS_12basic_stringIcNS_11char_traitsIcEENS_9allocatorIcEEEEEEvPT_, symObjAddr: 0xFE0, symBinAddr: 0x100003444, symSize: 0x10 }
  - { offsetInCU: 0x717F, offset: 0x717F, size: 0x8, addend: 0x0, symName: __ZNSt3__120__throw_length_errorB7v160006EPKc, symObjAddr: 0x10A0, symBinAddr: 0x100003504, symSize: 0x64 }
  - { offsetInCU: 0x71A7, offset: 0x71A7, size: 0x8, addend: 0x0, symName: __ZNSt3__117__libcpp_allocateB7v160006Emm, symObjAddr: 0x1240, symBinAddr: 0x1000036A4, symSize: 0x60 }
  - { offsetInCU: 0x7201, offset: 0x7201, size: 0x8, addend: 0x0, symName: __ZNSt3__124__is_overaligned_for_newB7v160006Em, symObjAddr: 0x12A0, symBinAddr: 0x100003704, symSize: 0x20 }
  - { offsetInCU: 0x722F, offset: 0x722F, size: 0x8, addend: 0x0, symName: __ZNSt3__121__libcpp_operator_newB7v160006IJmSt11align_val_tEEEPvDpT_, symObjAddr: 0x12C0, symBinAddr: 0x100003724, symSize: 0x2C }
  - { offsetInCU: 0x727C, offset: 0x727C, size: 0x8, addend: 0x0, symName: __ZNSt3__121__libcpp_operator_newB7v160006IJmEEEPvDpT_, symObjAddr: 0x12EC, symBinAddr: 0x100003750, symSize: 0x24 }
  - { offsetInCU: 0x72B5, offset: 0x72B5, size: 0x8, addend: 0x0, symName: __ZNSt3__14copyB7v160006IPKcPcEET0_T_S5_S4_, symObjAddr: 0x13F0, symBinAddr: 0x100003854, symSize: 0x40 }
  - { offsetInCU: 0x730F, offset: 0x730F, size: 0x8, addend: 0x0, symName: __ZNSt3__16__copyB7v160006INS_17_ClassicAlgPolicyEPKcS3_PcEENS_4pairIT0_T2_EES6_T1_S7_, symObjAddr: 0x1430, symBinAddr: 0x100003894, symSize: 0x44 }
  - { offsetInCU: 0x737B, offset: 0x737B, size: 0x8, addend: 0x0, symName: __ZNSt3__123__dispatch_copy_or_moveB7v160006INS_17_ClassicAlgPolicyENS_11__copy_loopIS1_EENS_14__copy_trivialEPKcS6_PcEENS_4pairIT2_T4_EES9_T3_SA_, symObjAddr: 0x1474, symBinAddr: 0x1000038D8, symSize: 0x44 }
  - { offsetInCU: 0x73F9, offset: 0x73F9, size: 0x8, addend: 0x0, symName: __ZNSt3__121__unwrap_and_dispatchB7v160006INS_10__overloadINS_11__copy_loopINS_17_ClassicAlgPolicyEEENS_14__copy_trivialEEEPKcS8_PcLi0EEENS_4pairIT0_T2_EESB_T1_SC_, symObjAddr: 0x14B8, symBinAddr: 0x10000391C, symSize: 0xB4 }
  - { offsetInCU: 0x7487, offset: 0x7487, size: 0x8, addend: 0x0, symName: __ZNSt3__114__unwrap_rangeB7v160006IPKcS2_EEDaT_T0_, symObjAddr: 0x156C, symBinAddr: 0x1000039D0, symSize: 0x3C }
  - { offsetInCU: 0x7669, offset: 0x7669, size: 0x8, addend: 0x0, symName: __ZNSt3__113__unwrap_iterB7v160006IPcNS_18__unwrap_iter_implIS1_Lb1EEELi0EEEDTclsrT0_8__unwrapclsr3stdE7declvalIT_EEEES5_, symObjAddr: 0x15F0, symBinAddr: 0x100003A54, symSize: 0x24 }
  - { offsetInCU: 0x76AD, offset: 0x76AD, size: 0x8, addend: 0x0, symName: __ZNSt3__19make_pairB7v160006IPKcPcEENS_4pairINS_18__unwrap_ref_decayIT_E4typeENS5_IT0_E4typeEEEOS6_OS9_, symObjAddr: 0x1614, symBinAddr: 0x100003A78, symSize: 0x38 }
  - { offsetInCU: 0x76FC, offset: 0x76FC, size: 0x8, addend: 0x0, symName: __ZNSt3__114__rewrap_rangeB7v160006IPKcS2_S2_EET0_S3_T1_, symObjAddr: 0x164C, symBinAddr: 0x100003AB0, symSize: 0x2C }
  - { offsetInCU: 0x7751, offset: 0x7751, size: 0x8, addend: 0x0, symName: __ZNSt3__113__rewrap_iterB7v160006IPcS1_NS_18__unwrap_iter_implIS1_Lb1EEEEET_S4_T0_, symObjAddr: 0x1678, symBinAddr: 0x100003ADC, symSize: 0x3C }
  - { offsetInCU: 0x790F, offset: 0x790F, size: 0x8, addend: 0x0, symName: __ZNSt3__113__unwrap_iterB7v160006IPKcNS_18__unwrap_iter_implIS2_Lb1EEELi0EEEDTclsrT0_8__unwrapclsr3stdE7declvalIT_EEEES6_, symObjAddr: 0x170C, symBinAddr: 0x100003B70, symSize: 0x24 }
  - { offsetInCU: 0x79A6, offset: 0x79A6, size: 0x8, addend: 0x0, symName: __ZNSt3__112__to_addressB7v160006IKcEEPT_S3_, symObjAddr: 0x1790, symBinAddr: 0x100003BF4, symSize: 0x14 }
  - { offsetInCU: 0x79DB, offset: 0x79DB, size: 0x8, addend: 0x0, symName: __ZNSt3__119__copy_trivial_implB7v160006IKccEENS_4pairIPT_PT0_EES4_S4_S6_, symObjAddr: 0x17D8, symBinAddr: 0x100003C3C, symSize: 0x7C }
  - { offsetInCU: 0x7A43, offset: 0x7A43, size: 0x8, addend: 0x0, symName: __ZNSt3__19make_pairB7v160006IRPKcPcEENS_4pairINS_18__unwrap_ref_decayIT_E4typeENS6_IT0_E4typeEEEOS7_OSA_, symObjAddr: 0x1854, symBinAddr: 0x100003CB8, symSize: 0x38 }
  - { offsetInCU: 0x7AE5, offset: 0x7AE5, size: 0x8, addend: 0x0, symName: __ZNSt3__113__rewrap_iterB7v160006IPKcS2_NS_18__unwrap_iter_implIS2_Lb1EEEEET_S5_T0_, symObjAddr: 0x19BC, symBinAddr: 0x100003E20, symSize: 0x3C }
  - { offsetInCU: 0x7B6D, offset: 0x7B6D, size: 0x8, addend: 0x0, symName: __ZNSt3__16fill_nB7v160006IPcmcEET_S2_T0_RKT1_, symObjAddr: 0x1B40, symBinAddr: 0x100003FA4, symSize: 0x44 }
  - { offsetInCU: 0x7BD0, offset: 0x7BD0, size: 0x8, addend: 0x0, symName: __ZNSt3__18__fill_nB7v160006IPcmcEET_S2_T0_RKT1_, symObjAddr: 0x1B84, symBinAddr: 0x100003FE8, symSize: 0x64 }
  - { offsetInCU: 0x7C33, offset: 0x7C33, size: 0x8, addend: 0x0, symName: __ZNSt3__121__convert_to_integralB7v160006Em, symObjAddr: 0x1BE8, symBinAddr: 0x10000404C, symSize: 0x14 }
  - { offsetInCU: 0x7C5F, offset: 0x7C5F, size: 0x8, addend: 0x0, symName: __ZNSt3__122__make_exception_guardB7v160006INS_6vectorINS_4pairIxxEENS_9allocatorIS3_EEE16__destroy_vectorEEENS_28__exception_guard_exceptionsIT_EES9_, symObjAddr: 0x1E5C, symBinAddr: 0x1000042C0, symSize: 0x40 }
  - { offsetInCU: 0x7C94, offset: 0x7C94, size: 0x8, addend: 0x0, symName: __ZNSt3__119__debug_db_insert_cB7v160006INS_6vectorINS_4pairIxxEENS_9allocatorIS3_EEEEEEvPT_, symObjAddr: 0x1ED0, symBinAddr: 0x100004334, symSize: 0x10 }
  - { offsetInCU: 0x7CC5, offset: 0x7CC5, size: 0x8, addend: 0x0, symName: __ZNSt3__119__allocate_at_leastB7v160006INS_9allocatorINS_4pairIxxEEEEEEDaRT_m, symObjAddr: 0x2258, symBinAddr: 0x1000046BC, symSize: 0x3C }
  - { offsetInCU: 0x7D08, offset: 0x7D08, size: 0x8, addend: 0x0, symName: __ZNSt3__13minB7v160006ImEERKT_S3_S3_, symObjAddr: 0x2390, symBinAddr: 0x1000047F4, symSize: 0x2C }
  - { offsetInCU: 0x7F35, offset: 0x7F35, size: 0x8, addend: 0x0, symName: __ZNSt3__13minB7v160006ImNS_6__lessImmEEEERKT_S5_S5_T0_, symObjAddr: 0x2420, symBinAddr: 0x100004884, symSize: 0x54 }
  - { offsetInCU: 0x7FCA, offset: 0x7FCA, size: 0x8, addend: 0x0, symName: __ZNSt3__117allocate_at_leastB7v160006INS_9allocatorINS_4pairIxxEEEEEENS_17allocation_resultINS_16allocator_traitsIT_E7pointerEEERS7_m, symObjAddr: 0x24E8, symBinAddr: 0x10000494C, symSize: 0x3C }
  - { offsetInCU: 0x800D, offset: 0x800D, size: 0x8, addend: 0x0, symName: __ZNSt3__112__to_addressB7v160006INS_4pairIxxEEEEPT_S4_, symObjAddr: 0x26B4, symBinAddr: 0x100004B18, symSize: 0x14 }
  - { offsetInCU: 0x8067, offset: 0x8067, size: 0x8, addend: 0x0, symName: __ZNSt3__112construct_atB7v160006INS_4pairIxxEEJEPS2_EEPT_S5_DpOT0_, symObjAddr: 0x27FC, symBinAddr: 0x100004C60, symSize: 0x34 }
  - { offsetInCU: 0x80C3, offset: 0x80C3, size: 0x8, addend: 0x0, symName: __ZNSt3__118__debug_db_erase_cB7v160006INS_6vectorINS_4pairIxxEENS_9allocatorIS3_EEEEEEvPT_, symObjAddr: 0x2A3C, symBinAddr: 0x100004EA0, symSize: 0x10 }
  - { offsetInCU: 0x80F4, offset: 0x80F4, size: 0x8, addend: 0x0, symName: __ZNSt3__110destroy_atB7v160006INS_4pairIxxEELi0EEEvPT_, symObjAddr: 0x2B84, symBinAddr: 0x100004FE8, symSize: 0x24 }
  - { offsetInCU: 0x812B, offset: 0x812B, size: 0x8, addend: 0x0, symName: __ZNSt3__112__destroy_atB7v160006INS_4pairIxxEELi0EEEvPT_, symObjAddr: 0x2BA8, symBinAddr: 0x10000500C, symSize: 0x10 }
  - { offsetInCU: 0x8162, offset: 0x8162, size: 0x8, addend: 0x0, symName: __ZNSt3__119__libcpp_deallocateB7v160006EPvmm, symObjAddr: 0x2BF8, symBinAddr: 0x10000505C, symSize: 0x60 }
  - { offsetInCU: 0x81C7, offset: 0x81C7, size: 0x8, addend: 0x0, symName: __ZNSt3__127__do_deallocate_handle_sizeB7v160006IJSt11align_val_tEEEvPvmDpT_, symObjAddr: 0x2C58, symBinAddr: 0x1000050BC, symSize: 0x30 }
  - { offsetInCU: 0x821A, offset: 0x821A, size: 0x8, addend: 0x0, symName: __ZNSt3__127__do_deallocate_handle_sizeB7v160006IJEEEvPvmDpT_, symObjAddr: 0x2C88, symBinAddr: 0x1000050EC, symSize: 0x28 }
  - { offsetInCU: 0x8258, offset: 0x8258, size: 0x8, addend: 0x0, symName: __ZNSt3__124__libcpp_operator_deleteB7v160006IJPvSt11align_val_tEEEvDpT_, symObjAddr: 0x2CB0, symBinAddr: 0x100005114, symSize: 0x2C }
  - { offsetInCU: 0x82A1, offset: 0x82A1, size: 0x8, addend: 0x0, symName: __ZNSt3__124__libcpp_operator_deleteB7v160006IJPvEEEvDpT_, symObjAddr: 0x2CDC, symBinAddr: 0x100005140, symSize: 0x24 }
  - { offsetInCU: 0x82D6, offset: 0x82D6, size: 0x8, addend: 0x0, symName: __ZNSt3__14sortB7v160006INS_11__wrap_iterIPNS_4pairIxxEEEENS_6__lessIS3_S3_EEEEvT_S8_T0_, symObjAddr: 0x2D00, symBinAddr: 0x100005164, symSize: 0x40 }
  - { offsetInCU: 0x8330, offset: 0x8330, size: 0x8, addend: 0x0, symName: __ZNSt3__111__sort_implB7v160006INS_17_ClassicAlgPolicyENS_11__wrap_iterIPNS_4pairIxxEEEENS_6__lessIS4_S4_EEEEvT0_S9_RT1_, symObjAddr: 0x2D40, symBinAddr: 0x1000051A4, symSize: 0x84 }
  - { offsetInCU: 0x83D7, offset: 0x83D7, size: 0x8, addend: 0x0, symName: __ZNSt3__123__debug_randomize_rangeB7v160006INS_17_ClassicAlgPolicyENS_11__wrap_iterIPNS_4pairIxxEEEES6_EEvT0_T1_, symObjAddr: 0x2DC4, symBinAddr: 0x100005228, symSize: 0x14 }
  - { offsetInCU: 0x8428, offset: 0x8428, size: 0x8, addend: 0x0, symName: __ZNSt3__16__sortIRNS_6__lessINS_4pairIxxEES3_EEPS3_EEvT0_S7_T_, symObjAddr: 0x2DD8, symBinAddr: 0x10000523C, symSize: 0x68 }
  - { offsetInCU: 0x84B8, offset: 0x84B8, size: 0x8, addend: 0x0, symName: __ZNSt3__113__unwrap_iterB7v160006INS_11__wrap_iterIPNS_4pairIxxEEEENS_18__unwrap_iter_implIS5_Lb1EEELi0EEEDTclsrT0_8__unwrapclsr3stdE7declvalIT_EEEES9_, symObjAddr: 0x2E40, symBinAddr: 0x1000052A4, symSize: 0x2C }
  - { offsetInCU: 0x84FC, offset: 0x84FC, size: 0x8, addend: 0x0, symName: __ZNSt3__17__log2iB7v160006IlEET_S1_, symObjAddr: 0x2E6C, symBinAddr: 0x1000052D0, symSize: 0x54 }
  - { offsetInCU: 0x85A1, offset: 0x85A1, size: 0x8, addend: 0x0, symName: __ZNSt3__112__libcpp_clzB7v160006Em, symObjAddr: 0x35A4, symBinAddr: 0x100005A08, symSize: 0x1C }
  - { offsetInCU: 0x8667, offset: 0x8667, size: 0x8, addend: 0x0, symName: __ZNSt3__124__sort3_maybe_branchlessB7v160006INS_17_ClassicAlgPolicyERNS_6__lessINS_4pairIxxEES4_EEPS4_EENS_9enable_ifIXntsr21__use_branchless_sortIT0_T1_EE5valueEvE4typeESA_SA_SA_S9_, symObjAddr: 0x3644, symBinAddr: 0x100005AA8, symSize: 0x3C }
  - { offsetInCU: 0x86D8, offset: 0x86D8, size: 0x8, addend: 0x0, symName: __ZNSt3__124__sort4_maybe_branchlessB7v160006INS_17_ClassicAlgPolicyERNS_6__lessINS_4pairIxxEES4_EEPS4_EENS_9enable_ifIXntsr21__use_branchless_sortIT0_T1_EE5valueEvE4typeESA_SA_SA_SA_S9_, symObjAddr: 0x3680, symBinAddr: 0x100005AE4, symSize: 0x44 }
  - { offsetInCU: 0x875D, offset: 0x875D, size: 0x8, addend: 0x0, symName: __ZNSt3__124__sort5_maybe_branchlessB7v160006INS_17_ClassicAlgPolicyERNS_6__lessINS_4pairIxxEES4_EEPS4_EENS_9enable_ifIXntsr21__use_branchless_sortIT0_T1_EE5valueEvE4typeESA_SA_SA_SA_SA_S9_, symObjAddr: 0x36C4, symBinAddr: 0x100005B28, symSize: 0x4C }
  - { offsetInCU: 0x87F1, offset: 0x87F1, size: 0x8, addend: 0x0, symName: __ZNSt3__114__partial_sortB7v160006INS_17_ClassicAlgPolicyERNS_6__lessINS_4pairIxxEES4_EEPS4_S7_EET1_S8_S8_T2_RT0_, symObjAddr: 0x3854, symBinAddr: 0x100005CB8, symSize: 0x94 }
  - { offsetInCU: 0x8879, offset: 0x8879, size: 0x8, addend: 0x0, symName: __ZNSt3__119__sort5_wrap_policyB7v160006INS_17_ClassicAlgPolicyERNS_6__lessINS_4pairIxxEES4_EEPS4_EEjT1_S8_S8_S8_S8_T0_, symObjAddr: 0x38E8, symBinAddr: 0x100005D4C, symSize: 0x54 }
  - { offsetInCU: 0x891F, offset: 0x891F, size: 0x8, addend: 0x0, symName: __ZNSt3__17__sort3B7v160006INS_17_ClassicAlgPolicyERNS_6__lessINS_4pairIxxEES4_EEPS4_EEjT1_S8_S8_T0_, symObjAddr: 0x393C, symBinAddr: 0x100005DA0, symSize: 0x144 }
  - { offsetInCU: 0x899E, offset: 0x899E, size: 0x8, addend: 0x0, symName: __ZNSt3__1ltB7v160006ENS_15strong_orderingENS_20_CmpUnspecifiedParamE, symObjAddr: 0x3DA8, symBinAddr: 0x10000620C, symSize: 0x24 }
  - { offsetInCU: 0x89D7, offset: 0x89D7, size: 0x8, addend: 0x0, symName: __ZNSt3__1ssB7v160006IxxEENS_26common_comparison_categoryIJDTclL_ZNS_17__synth_three_wayB7v160006EEclsr3stdE7declvalIRT_EEclsr3stdE7declvalIS3_EEEEDTclL_ZNS_17__synth_three_wayB7v160006EEclsr3stdE7declvalIRT0_EEclsr3stdE7declvalIS6_EEEEEE4typeERKNS_4pairIS2_S5_EESD_, symObjAddr: 0x3DCC, symBinAddr: 0x100006230, symSize: 0x8C }
  - { offsetInCU: 0x8BE6, offset: 0x8BE6, size: 0x8, addend: 0x0, symName: __ZNSt3__1eqB7v160006ENS_15strong_orderingENS_20_CmpUnspecifiedParamE, symObjAddr: 0x3EEC, symBinAddr: 0x100006350, symSize: 0x24 }
  - { offsetInCU: 0x8C1C, offset: 0x8C1C, size: 0x8, addend: 0x0, symName: __ZNSt3__19iter_swapB7v160006IPNS_4pairIxxEES3_EEvT_T0_, symObjAddr: 0x3F28, symBinAddr: 0x10000638C, symSize: 0x2C }
  - { offsetInCU: 0x8C64, offset: 0x8C64, size: 0x8, addend: 0x0, symName: __ZNSt3__14swapB7v160006IxxEENS_9enable_ifIXaasr14__is_swappableIT_EE5valuesr14__is_swappableIT0_EE5valueEvE4typeERNS_4pairIS2_S3_EES8_, symObjAddr: 0x3F54, symBinAddr: 0x1000063B8, symSize: 0x2C }
  - { offsetInCU: 0x8CB3, offset: 0x8CB3, size: 0x8, addend: 0x0, symName: __ZNSt3__14swapB7v160006IxEENS_9enable_ifIXaasr21is_move_constructibleIT_EE5valuesr18is_move_assignableIS2_EE5valueEvE4typeERS2_S5_, symObjAddr: 0x3FC4, symBinAddr: 0x100006428, symSize: 0x3C }
  - { offsetInCU: 0x8D04, offset: 0x8D04, size: 0x8, addend: 0x0, symName: __ZNSt3__17__sort4B7v160006INS_17_ClassicAlgPolicyERNS_6__lessINS_4pairIxxEES4_EEPS4_EEjT1_S8_S8_S8_T0_, symObjAddr: 0x4000, symBinAddr: 0x100006464, symSize: 0xE4 }
  - { offsetInCU: 0x8DB5, offset: 0x8DB5, size: 0x8, addend: 0x0, symName: __ZNSt3__123__debug_randomize_rangeB7v160006INS_17_ClassicAlgPolicyEPNS_4pairIxxEES4_EEvT0_T1_, symObjAddr: 0x4158, symBinAddr: 0x1000065BC, symSize: 0x14 }
  - { offsetInCU: 0x8E06, offset: 0x8E06, size: 0x8, addend: 0x0, symName: __ZNSt3__119__partial_sort_implB7v160006INS_17_ClassicAlgPolicyERNS_6__lessINS_4pairIxxEES4_EEPS4_S7_EET1_S8_S8_T2_OT0_, symObjAddr: 0x416C, symBinAddr: 0x1000065D0, symSize: 0x110 }
  - { offsetInCU: 0x8E9C, offset: 0x8E9C, size: 0x8, addend: 0x0, symName: __ZNSt3__111__make_heapB7v160006INS_17_ClassicAlgPolicyERNS_6__lessINS_4pairIxxEES4_EEPS4_EEvT1_S8_OT0_, symObjAddr: 0x427C, symBinAddr: 0x1000066E0, symSize: 0xB8 }
  - { offsetInCU: 0x8F3E, offset: 0x8F3E, size: 0x8, addend: 0x0, symName: __ZNSt3__111__sort_heapB7v160006INS_17_ClassicAlgPolicyERNS_6__lessINS_4pairIxxEES4_EEPS4_EEvT1_S8_OT0_, symObjAddr: 0x4540, symBinAddr: 0x1000069A4, symSize: 0x90 }
  - { offsetInCU: 0x8FD2, offset: 0x8FD2, size: 0x8, addend: 0x0, symName: __ZNSt3__110__pop_heapB7v160006INS_17_ClassicAlgPolicyENS_6__lessINS_4pairIxxEES4_EEPS4_EEvT1_S7_RT0_NS_15iterator_traitsIS7_E15difference_typeE, symObjAddr: 0x45D0, symBinAddr: 0x100006A34, symSize: 0xF4 }
  - { offsetInCU: 0x9082, offset: 0x9082, size: 0x8, addend: 0x0, symName: __ZNSt3__19__sift_upB7v160006INS_17_ClassicAlgPolicyERNS_6__lessINS_4pairIxxEES4_EEPS4_EEvT1_S8_OT0_NS_15iterator_traitsIS8_E15difference_typeE, symObjAddr: 0x47C4, symBinAddr: 0x100006C28, symSize: 0x11C }
  - { offsetInCU: 0x9132, offset: 0x9132, size: 0x8, addend: 0x0, symName: __ZNSt3__17__sort5IRNS_6__lessINS_4pairIxxEES3_EEPS3_EEjT0_S7_S7_S7_S7_T_, symObjAddr: 0x48E0, symBinAddr: 0x100006D44, symSize: 0x12C }
  - { offsetInCU: 0x9230, offset: 0x9230, size: 0x8, addend: 0x0, symName: __ZNSt3__112__to_addressB7v160006INS_11__wrap_iterIPNS_4pairIxxEEEEvEENS_5decayIDTclsr19__to_address_helperIT_EE6__callclsr3stdE7declvalIRKS7_EEEEE4typeES9_, symObjAddr: 0x4A34, symBinAddr: 0x100006E98, symSize: 0x24 }
  - { offsetInCU: 0x92D1, offset: 0x92D1, size: 0x8, addend: 0x0, symName: __ZNSt3__13maxB7v160006IxNS_6__lessIxxEEEERKT_S5_S5_T0_, symObjAddr: 0x4B60, symBinAddr: 0x100006FC4, symSize: 0x54 }
  - { offsetInCU: 0x9366, offset: 0x9366, size: 0x8, addend: 0x0, symName: __ZNSt3__116__pad_and_outputB7v160006IcNS_11char_traitsIcEEEENS_19ostreambuf_iteratorIT_T0_EES6_PKS4_S8_S8_RNS_8ios_baseES4_, symObjAddr: 0x4E34, symBinAddr: 0x100007298, symSize: 0x240 }
  - { offsetInCU: 0x9435, offset: 0x9435, size: 0x8, addend: 0x0, symName: __ZNSt3__19use_facetB7v160006INS_5ctypeIcEEEERKT_RKNS_6localeE, symObjAddr: 0x53F0, symBinAddr: 0x100007854, symSize: 0x2C }
  - { offsetInCU: 0x9CAF, offset: 0x9CAF, size: 0x8, addend: 0x0, symName: __ZSt28__throw_bad_array_new_lengthB7v160006v, symObjAddr: 0x120C, symBinAddr: 0x100003670, symSize: 0x34 }
  - { offsetInCU: 0xC8C9, offset: 0xC8C9, size: 0x8, addend: 0x0, symName: __Z5setIONSt3__112basic_stringIcNS_11char_traitsIcEENS_9allocatorIcEEEE, symObjAddr: 0x0, symBinAddr: 0x100002464, symSize: 0x11C }
  - { offsetInCU: 0xC8F3, offset: 0xC8F3, size: 0x8, addend: 0x0, symName: __ZNSt3__19basic_iosIcNS_11char_traitsIcEEE3tieB7v160006EPNS_13basic_ostreamIcS2_EE, symObjAddr: 0x11C, symBinAddr: 0x100002580, symSize: 0x2C }
  - { offsetInCU: 0xC939, offset: 0xC939, size: 0x8, addend: 0x0, symName: __ZNKSt3__112basic_stringIcNS_11char_traitsIcEENS_9allocatorIcEEE5emptyB7v160006Ev, symObjAddr: 0x148, symBinAddr: 0x1000025AC, symSize: 0x30 }
  - { offsetInCU: 0xC95F, offset: 0xC95F, size: 0x8, addend: 0x0, symName: __ZNKSt3__112basic_stringIcNS_11char_traitsIcEENS_9allocatorIcEEE5c_strB7v160006Ev, symObjAddr: 0x294, symBinAddr: 0x1000026F8, symSize: 0x24 }
  - { offsetInCU: 0xC985, offset: 0xC985, size: 0x8, addend: 0x0, symName: _main, symObjAddr: 0x2B8, symBinAddr: 0x10000271C, symSize: 0x354 }
  - { offsetInCU: 0xCA4A, offset: 0xCA4A, size: 0x8, addend: 0x0, symName: __ZNSt3__112basic_stringIcNS_11char_traitsIcEENS_9allocatorIcEEEC1B7v160006IDnEEPKc, symObjAddr: 0x60C, symBinAddr: 0x100002A70, symSize: 0x34 }
  - { offsetInCU: 0xCA88, offset: 0xCA88, size: 0x8, addend: 0x0, symName: __ZNSt3__16vectorINS_4pairIxxEENS_9allocatorIS2_EEEC1Em, symObjAddr: 0x640, symBinAddr: 0x100002AA4, symSize: 0x34 }
  - { offsetInCU: 0xCAC3, offset: 0xCAC3, size: 0x8, addend: 0x0, symName: __ZNSt3__16vectorINS_4pairIxxEENS_9allocatorIS2_EEEixB7v160006Em, symObjAddr: 0x674, symBinAddr: 0x100002AD8, symSize: 0x24 }
  - { offsetInCU: 0xCAFA, offset: 0xCAFA, size: 0x8, addend: 0x0, symName: __ZNSt3__16vectorINS_4pairIxxEENS_9allocatorIS2_EEE5beginB7v160006Ev, symObjAddr: 0x6D4, symBinAddr: 0x100002B38, symSize: 0x30 }
  - { offsetInCU: 0xCB22, offset: 0xCB22, size: 0x8, addend: 0x0, symName: __ZNSt3__16vectorINS_4pairIxxEENS_9allocatorIS2_EEE3endB7v160006Ev, symObjAddr: 0x704, symBinAddr: 0x100002B68, symSize: 0x30 }
  - { offsetInCU: 0xCB4A, offset: 0xCB4A, size: 0x8, addend: 0x0, symName: __ZNSt3__16vectorINS_4pairIxxEENS_9allocatorIS2_EEED1B7v160006Ev, symObjAddr: 0x794, symBinAddr: 0x100002BF8, symSize: 0x2C }
  - { offsetInCU: 0xCB74, offset: 0xCB74, size: 0x8, addend: 0x0, symName: __ZNKSt3__112basic_stringIcNS_11char_traitsIcEENS_9allocatorIcEEE4sizeB7v160006Ev, symObjAddr: 0x7C0, symBinAddr: 0x100002C24, symSize: 0x54 }
  - { offsetInCU: 0xCB9A, offset: 0xCB9A, size: 0x8, addend: 0x0, symName: __ZNKSt3__112basic_stringIcNS_11char_traitsIcEENS_9allocatorIcEEE9__is_longB7v160006Ev, symObjAddr: 0x814, symBinAddr: 0x100002C78, symSize: 0x38 }
  - { offsetInCU: 0xCBC0, offset: 0xCBC0, size: 0x8, addend: 0x0, symName: __ZNKSt3__112basic_stringIcNS_11char_traitsIcEENS_9allocatorIcEEE15__get_long_sizeB7v160006Ev, symObjAddr: 0x84C, symBinAddr: 0x100002CB0, symSize: 0x28 }
  - { offsetInCU: 0xCBE6, offset: 0xCBE6, size: 0x8, addend: 0x0, symName: __ZNKSt3__112basic_stringIcNS_11char_traitsIcEENS_9allocatorIcEEE16__get_short_sizeB7v160006Ev, symObjAddr: 0x874, symBinAddr: 0x100002CD8, symSize: 0x34 }
  - { offsetInCU: 0xCC0C, offset: 0xCC0C, size: 0x8, addend: 0x0, symName: __ZNKSt3__117__compressed_pairINS_12basic_stringIcNS_11char_traitsIcEENS_9allocatorIcEEE5__repES5_E5firstB7v160006Ev, symObjAddr: 0x8A8, symBinAddr: 0x100002D0C, symSize: 0x24 }
  - { offsetInCU: 0xCC32, offset: 0xCC32, size: 0x8, addend: 0x0, symName: __ZNKSt3__122__compressed_pair_elemINS_12basic_stringIcNS_11char_traitsIcEENS_9allocatorIcEEE5__repELi0ELb0EE5__getB7v160006Ev, symObjAddr: 0x8CC, symBinAddr: 0x100002D30, symSize: 0x14 }
  - { offsetInCU: 0xCC58, offset: 0xCC58, size: 0x8, addend: 0x0, symName: __ZNSt3__111char_traitsIcE6lengthEPKc, symObjAddr: 0x8E0, symBinAddr: 0x100002D44, symSize: 0x34 }
  - { offsetInCU: 0xCC85, offset: 0xCC85, size: 0x8, addend: 0x0, symName: __ZNSt3__116allocator_traitsINS_9allocatorIcEEE37select_on_container_copy_constructionB7v160006IS2_vvEES2_RKS2_, symObjAddr: 0x914, symBinAddr: 0x100002D78, symSize: 0x10 }
  - { offsetInCU: 0xCCB4, offset: 0xCCB4, size: 0x8, addend: 0x0, symName: __ZNKSt3__112basic_stringIcNS_11char_traitsIcEENS_9allocatorIcEEE13get_allocatorB7v160006Ev, symObjAddr: 0x924, symBinAddr: 0x100002D88, symSize: 0x24 }
  - { offsetInCU: 0xCCDA, offset: 0xCCDA, size: 0x8, addend: 0x0, symName: __ZNSt3__112basic_stringIcNS_11char_traitsIcEENS_9allocatorIcEEEC1B7v160006ENS_24__uninitialized_size_tagEmRKS4_, symObjAddr: 0x948, symBinAddr: 0x100002DAC, symSize: 0x3C }
  - { offsetInCU: 0xCD2D, offset: 0xCD2D, size: 0x8, addend: 0x0, symName: __ZNSt3__112basic_stringIcNS_11char_traitsIcEENS_9allocatorIcEEE13__get_pointerB7v160006Ev, symObjAddr: 0x998, symBinAddr: 0x100002DFC, symSize: 0x54 }
  - { offsetInCU: 0xCD53, offset: 0xCD53, size: 0x8, addend: 0x0, symName: __ZNSt3__111char_traitsIcE4copyEPcPKcm, symObjAddr: 0x9EC, symBinAddr: 0x100002E50, symSize: 0x5C }
  - { offsetInCU: 0xCD92, offset: 0xCD92, size: 0x8, addend: 0x0, symName: __ZNKSt3__112basic_stringIcNS_11char_traitsIcEENS_9allocatorIcEEE4dataB7v160006Ev, symObjAddr: 0xA48, symBinAddr: 0x100002EAC, symSize: 0x28 }
  - { offsetInCU: 0xCDB8, offset: 0xCDB8, size: 0x8, addend: 0x0, symName: __ZNSt3__111char_traitsIcE6assignEPcmc, symObjAddr: 0xA70, symBinAddr: 0x100002ED4, symSize: 0x44 }
  - { offsetInCU: 0xCDF7, offset: 0xCDF7, size: 0x8, addend: 0x0, symName: __ZNKSt3__112basic_stringIcNS_11char_traitsIcEENS_9allocatorIcEEE7__allocB7v160006Ev, symObjAddr: 0xAE4, symBinAddr: 0x100002F48, symSize: 0x24 }
  - { offsetInCU: 0xCE1D, offset: 0xCE1D, size: 0x8, addend: 0x0, symName: __ZNKSt3__117__compressed_pairINS_12basic_stringIcNS_11char_traitsIcEENS_9allocatorIcEEE5__repES5_E6secondB7v160006Ev, symObjAddr: 0xB08, symBinAddr: 0x100002F6C, symSize: 0x24 }
  - { offsetInCU: 0xCE43, offset: 0xCE43, size: 0x8, addend: 0x0, symName: __ZNKSt3__122__compressed_pair_elemINS_9allocatorIcEELi1ELb1EE5__getB7v160006Ev, symObjAddr: 0xB2C, symBinAddr: 0x100002F90, symSize: 0x14 }
  - { offsetInCU: 0xCE69, offset: 0xCE69, size: 0x8, addend: 0x0, symName: __ZNSt3__112basic_stringIcNS_11char_traitsIcEENS_9allocatorIcEEEC2B7v160006ENS_24__uninitialized_size_tagEmRKS4_, symObjAddr: 0xB40, symBinAddr: 0x100002FA4, symSize: 0x118 }
  - { offsetInCU: 0xCEEE, offset: 0xCEEE, size: 0x8, addend: 0x0, symName: __ZNSt3__117__compressed_pairINS_12basic_stringIcNS_11char_traitsIcEENS_9allocatorIcEEE5__repES5_EC1B7v160006INS_18__default_init_tagERKS5_EEOT_OT0_, symObjAddr: 0xC58, symBinAddr: 0x1000030BC, symSize: 0x3C }
  - { offsetInCU: 0xCF46, offset: 0xCF46, size: 0x8, addend: 0x0, symName: __ZNKSt3__112basic_stringIcNS_11char_traitsIcEENS_9allocatorIcEEE8max_sizeB7v160006Ev, symObjAddr: 0xC94, symBinAddr: 0x1000030F8, symSize: 0xAC }
  - { offsetInCU: 0xCF98, offset: 0xCF98, size: 0x8, addend: 0x0, symName: __ZNKSt3__112basic_stringIcNS_11char_traitsIcEENS_9allocatorIcEEE20__throw_length_errorB7v160006Ev, symObjAddr: 0xD40, symBinAddr: 0x1000031A4, symSize: 0x1C }
  - { offsetInCU: 0xCFBE, offset: 0xCFBE, size: 0x8, addend: 0x0, symName: __ZNSt3__112basic_stringIcNS_11char_traitsIcEENS_9allocatorIcEEE13__fits_in_ssoB7v160006Em, symObjAddr: 0xD5C, symBinAddr: 0x1000031C0, symSize: 0x20 }
  - { offsetInCU: 0xCFE2, offset: 0xCFE2, size: 0x8, addend: 0x0, symName: __ZNSt3__117__compressed_pairINS_12basic_stringIcNS_11char_traitsIcEENS_9allocatorIcEEE5__repES5_E5firstB7v160006Ev, symObjAddr: 0xD7C, symBinAddr: 0x1000031E0, symSize: 0x24 }
  - { offsetInCU: 0xD008, offset: 0xD008, size: 0x8, addend: 0x0, symName: __ZNSt3__112basic_stringIcNS_11char_traitsIcEENS_9allocatorIcEEE16__set_short_sizeB7v160006Em, symObjAddr: 0xDA0, symBinAddr: 0x100003204, symSize: 0x78 }
  - { offsetInCU: 0xD03D, offset: 0xD03D, size: 0x8, addend: 0x0, symName: __ZNSt3__112basic_stringIcNS_11char_traitsIcEENS_9allocatorIcEEE11__recommendB7v160006Em, symObjAddr: 0xE18, symBinAddr: 0x10000327C, symSize: 0x84 }
  - { offsetInCU: 0xD070, offset: 0xD070, size: 0x8, addend: 0x0, symName: __ZNSt3__116allocator_traitsINS_9allocatorIcEEE8allocateB7v160006ERS2_m, symObjAddr: 0xE9C, symBinAddr: 0x100003300, symSize: 0x2C }
  - { offsetInCU: 0xD0A3, offset: 0xD0A3, size: 0x8, addend: 0x0, symName: __ZNSt3__112basic_stringIcNS_11char_traitsIcEENS_9allocatorIcEEE7__allocB7v160006Ev, symObjAddr: 0xEC8, symBinAddr: 0x10000332C, symSize: 0x24 }
  - { offsetInCU: 0xD0C9, offset: 0xD0C9, size: 0x8, addend: 0x0, symName: __ZNSt3__112basic_stringIcNS_11char_traitsIcEENS_9allocatorIcEEE16__begin_lifetimeB7v160006EPcm, symObjAddr: 0xEEC, symBinAddr: 0x100003350, symSize: 0x14 }
  - { offsetInCU: 0xD0FC, offset: 0xD0FC, size: 0x8, addend: 0x0, symName: __ZNSt3__112basic_stringIcNS_11char_traitsIcEENS_9allocatorIcEEE14__set_long_capB7v160006Em, symObjAddr: 0xF00, symBinAddr: 0x100003364, symSize: 0x70 }
  - { offsetInCU: 0xD131, offset: 0xD131, size: 0x8, addend: 0x0, symName: __ZNSt3__112basic_stringIcNS_11char_traitsIcEENS_9allocatorIcEEE18__set_long_pointerB7v160006EPc, symObjAddr: 0xF70, symBinAddr: 0x1000033D4, symSize: 0x38 }
  - { offsetInCU: 0xD166, offset: 0xD166, size: 0x8, addend: 0x0, symName: __ZNSt3__112basic_stringIcNS_11char_traitsIcEENS_9allocatorIcEEE15__set_long_sizeB7v160006Em, symObjAddr: 0xFA8, symBinAddr: 0x10000340C, symSize: 0x38 }
  - { offsetInCU: 0xD19B, offset: 0xD19B, size: 0x8, addend: 0x0, symName: __ZNSt3__117__compressed_pairINS_12basic_stringIcNS_11char_traitsIcEENS_9allocatorIcEEE5__repES5_EC2B7v160006INS_18__default_init_tagERKS5_EEOT_OT0_, symObjAddr: 0xFF0, symBinAddr: 0x100003454, symSize: 0x40 }
  - { offsetInCU: 0xD1F3, offset: 0xD1F3, size: 0x8, addend: 0x0, symName: __ZNSt3__122__compressed_pair_elemINS_12basic_stringIcNS_11char_traitsIcEENS_9allocatorIcEEE5__repELi0ELb0EEC2B7v160006ENS_18__default_init_tagE, symObjAddr: 0x1030, symBinAddr: 0x100003494, symSize: 0x14 }
  - { offsetInCU: 0xD227, offset: 0xD227, size: 0x8, addend: 0x0, symName: __ZNSt3__122__compressed_pair_elemINS_9allocatorIcEELi1ELb1EEC2B7v160006IRKS2_vEEOT_, symObjAddr: 0x1044, symBinAddr: 0x1000034A8, symSize: 0x18 }
  - { offsetInCU: 0xD269, offset: 0xD269, size: 0x8, addend: 0x0, symName: __ZNSt3__116allocator_traitsINS_9allocatorIcEEE8max_sizeB7v160006IS2_vvEEmRKS2_, symObjAddr: 0x105C, symBinAddr: 0x1000034C0, symSize: 0x28 }
  - { offsetInCU: 0xD294, offset: 0xD294, size: 0x8, addend: 0x0, symName: __ZNSt3__114numeric_limitsImE3maxB7v160006Ev, symObjAddr: 0x1084, symBinAddr: 0x1000034E8, symSize: 0x14 }
  - { offsetInCU: 0xD2A8, offset: 0xD2A8, size: 0x8, addend: 0x0, symName: __ZNSt3__123__libcpp_numeric_limitsImLb1EE3maxB7v160006Ev, symObjAddr: 0x1098, symBinAddr: 0x1000034FC, symSize: 0x8 }
  - { offsetInCU: 0xD2BC, offset: 0xD2BC, size: 0x8, addend: 0x0, symName: __ZNSt12length_errorC1B7v160006EPKc, symObjAddr: 0x1104, symBinAddr: 0x100003568, symSize: 0x34 }
  - { offsetInCU: 0xD2F4, offset: 0xD2F4, size: 0x8, addend: 0x0, symName: __ZNSt12length_errorC2B7v160006EPKc, symObjAddr: 0x1138, symBinAddr: 0x10000359C, symSize: 0x4C }
  - { offsetInCU: 0xD32C, offset: 0xD32C, size: 0x8, addend: 0x0, symName: __ZNSt3__122__compressed_pair_elemINS_12basic_stringIcNS_11char_traitsIcEENS_9allocatorIcEEE5__repELi0ELb0EE5__getB7v160006Ev, symObjAddr: 0x1184, symBinAddr: 0x1000035E8, symSize: 0x14 }
  - { offsetInCU: 0xD352, offset: 0xD352, size: 0x8, addend: 0x0, symName: __ZNSt3__112basic_stringIcNS_11char_traitsIcEENS_9allocatorIcEEE10__align_itB7v160006ILm16EEEmm, symObjAddr: 0x1198, symBinAddr: 0x1000035FC, symSize: 0x1C }
  - { offsetInCU: 0xD380, offset: 0xD380, size: 0x8, addend: 0x0, symName: __ZNSt3__19allocatorIcE8allocateB7v160006Em, symObjAddr: 0x11B4, symBinAddr: 0x100003618, symSize: 0x58 }
  - { offsetInCU: 0xD3B4, offset: 0xD3B4, size: 0x8, addend: 0x0, symName: __ZNSt3__117__compressed_pairINS_12basic_stringIcNS_11char_traitsIcEENS_9allocatorIcEEE5__repES5_E6secondB7v160006Ev, symObjAddr: 0x1310, symBinAddr: 0x100003774, symSize: 0x24 }
  - { offsetInCU: 0xD3DA, offset: 0xD3DA, size: 0x8, addend: 0x0, symName: __ZNSt3__122__compressed_pair_elemINS_9allocatorIcEELi1ELb1EE5__getB7v160006Ev, symObjAddr: 0x1334, symBinAddr: 0x100003798, symSize: 0x14 }
  - { offsetInCU: 0xD400, offset: 0xD400, size: 0x8, addend: 0x0, symName: __ZNSt3__112basic_stringIcNS_11char_traitsIcEENS_9allocatorIcEEE18__get_long_pointerB7v160006Ev, symObjAddr: 0x1348, symBinAddr: 0x1000037AC, symSize: 0x28 }
  - { offsetInCU: 0xD426, offset: 0xD426, size: 0x8, addend: 0x0, symName: __ZNSt3__112basic_stringIcNS_11char_traitsIcEENS_9allocatorIcEEE19__get_short_pointerB7v160006Ev, symObjAddr: 0x1370, symBinAddr: 0x1000037D4, symSize: 0x28 }
  - { offsetInCU: 0xD44C, offset: 0xD44C, size: 0x8, addend: 0x0, symName: __ZNSt3__114pointer_traitsIPcE10pointer_toB7v160006ERc, symObjAddr: 0x1398, symBinAddr: 0x1000037FC, symSize: 0x14 }
  - { offsetInCU: 0xD49B, offset: 0xD49B, size: 0x8, addend: 0x0, symName: __ZNKSt3__114__copy_trivialclB7v160006IKccLi0EEENS_4pairIPT_PT0_EES5_S5_S7_, symObjAddr: 0x15A8, symBinAddr: 0x100003A0C, symSize: 0x48 }
  - { offsetInCU: 0xD524, offset: 0xD524, size: 0x8, addend: 0x0, symName: __ZNSt3__119__unwrap_range_implIPKcS2_E8__unwrapB7v160006ES2_S2_, symObjAddr: 0x16B4, symBinAddr: 0x100003B18, symSize: 0x58 }
  - { offsetInCU: 0xD55B, offset: 0xD55B, size: 0x8, addend: 0x0, symName: __ZNSt3__14pairIPKcS2_EC1B7v160006IS2_S2_LPv0EEEOT_OT0_, symObjAddr: 0x1730, symBinAddr: 0x100003B94, symSize: 0x3C }
  - { offsetInCU: 0xD5B9, offset: 0xD5B9, size: 0x8, addend: 0x0, symName: __ZNSt3__118__unwrap_iter_implIPKcLb1EE8__unwrapB7v160006ES2_, symObjAddr: 0x176C, symBinAddr: 0x100003BD0, symSize: 0x24 }
  - { offsetInCU: 0xD5DC, offset: 0xD5DC, size: 0x8, addend: 0x0, symName: __ZNSt3__14pairIPKcS2_EC2B7v160006IS2_S2_LPv0EEEOT_OT0_, symObjAddr: 0x17A4, symBinAddr: 0x100003C08, symSize: 0x34 }
  - { offsetInCU: 0xD645, offset: 0xD645, size: 0x8, addend: 0x0, symName: __ZNSt3__14pairIPKcPcEC1B7v160006IRS2_S3_LPv0EEEOT_OT0_, symObjAddr: 0x188C, symBinAddr: 0x100003CF0, symSize: 0x3C }
  - { offsetInCU: 0xD6A3, offset: 0xD6A3, size: 0x8, addend: 0x0, symName: __ZNSt3__14pairIPKcPcEC2B7v160006IRS2_S3_LPv0EEEOT_OT0_, symObjAddr: 0x18C8, symBinAddr: 0x100003D2C, symSize: 0x34 }
  - { offsetInCU: 0xD701, offset: 0xD701, size: 0x8, addend: 0x0, symName: __ZNSt3__118__unwrap_iter_implIPcLb1EE8__unwrapB7v160006ES1_, symObjAddr: 0x18FC, symBinAddr: 0x100003D60, symSize: 0x24 }
  - { offsetInCU: 0xD724, offset: 0xD724, size: 0x8, addend: 0x0, symName: __ZNSt3__14pairIPKcPcEC1B7v160006IS2_S3_LPv0EEEOT_OT0_, symObjAddr: 0x1920, symBinAddr: 0x100003D84, symSize: 0x3C }
  - { offsetInCU: 0xD782, offset: 0xD782, size: 0x8, addend: 0x0, symName: __ZNSt3__14pairIPKcPcEC2B7v160006IS2_S3_LPv0EEEOT_OT0_, symObjAddr: 0x195C, symBinAddr: 0x100003DC0, symSize: 0x34 }
  - { offsetInCU: 0xD7E0, offset: 0xD7E0, size: 0x8, addend: 0x0, symName: __ZNSt3__119__unwrap_range_implIPKcS2_E8__rewrapB7v160006ES2_S2_, symObjAddr: 0x1990, symBinAddr: 0x100003DF4, symSize: 0x2C }
  - { offsetInCU: 0xD811, offset: 0xD811, size: 0x8, addend: 0x0, symName: __ZNSt3__118__unwrap_iter_implIPKcLb1EE8__rewrapB7v160006ES2_S2_, symObjAddr: 0x19F8, symBinAddr: 0x100003E5C, symSize: 0x48 }
  - { offsetInCU: 0xD842, offset: 0xD842, size: 0x8, addend: 0x0, symName: __ZNSt3__118__unwrap_iter_implIPcLb1EE8__rewrapB7v160006ES1_S1_, symObjAddr: 0x1A40, symBinAddr: 0x100003EA4, symSize: 0x48 }
  - { offsetInCU: 0xD873, offset: 0xD873, size: 0x8, addend: 0x0, symName: __ZNKSt3__112basic_stringIcNS_11char_traitsIcEENS_9allocatorIcEEE13__get_pointerB7v160006Ev, symObjAddr: 0x1A88, symBinAddr: 0x100003EEC, symSize: 0x54 }
  - { offsetInCU: 0xD899, offset: 0xD899, size: 0x8, addend: 0x0, symName: __ZNKSt3__112basic_stringIcNS_11char_traitsIcEENS_9allocatorIcEEE18__get_long_pointerB7v160006Ev, symObjAddr: 0x1ADC, symBinAddr: 0x100003F40, symSize: 0x28 }
  - { offsetInCU: 0xD8BF, offset: 0xD8BF, size: 0x8, addend: 0x0, symName: __ZNKSt3__112basic_stringIcNS_11char_traitsIcEENS_9allocatorIcEEE19__get_short_pointerB7v160006Ev, symObjAddr: 0x1B04, symBinAddr: 0x100003F68, symSize: 0x28 }
  - { offsetInCU: 0xD8E5, offset: 0xD8E5, size: 0x8, addend: 0x0, symName: __ZNSt3__114pointer_traitsIPKcE10pointer_toB7v160006ERS1_, symObjAddr: 0x1B2C, symBinAddr: 0x100003F90, symSize: 0x14 }
  - { offsetInCU: 0xD908, offset: 0xD908, size: 0x8, addend: 0x0, symName: __ZNSt3__112basic_stringIcNS_11char_traitsIcEENS_9allocatorIcEEEC2B7v160006IDnEEPKc, symObjAddr: 0x1BFC, symBinAddr: 0x100004060, symSize: 0x60 }
  - { offsetInCU: 0xD946, offset: 0xD946, size: 0x8, addend: 0x0, symName: __ZNSt3__117__compressed_pairINS_12basic_stringIcNS_11char_traitsIcEENS_9allocatorIcEEE5__repES5_EC1B7v160006INS_18__default_init_tagESA_EEOT_OT0_, symObjAddr: 0x1C5C, symBinAddr: 0x1000040C0, symSize: 0x3C }
  - { offsetInCU: 0xD99E, offset: 0xD99E, size: 0x8, addend: 0x0, symName: __ZNSt3__117__compressed_pairINS_12basic_stringIcNS_11char_traitsIcEENS_9allocatorIcEEE5__repES5_EC2B7v160006INS_18__default_init_tagESA_EEOT_OT0_, symObjAddr: 0x1C98, symBinAddr: 0x1000040FC, symSize: 0x3C }
  - { offsetInCU: 0xD9F6, offset: 0xD9F6, size: 0x8, addend: 0x0, symName: __ZNSt3__122__compressed_pair_elemINS_9allocatorIcEELi1ELb1EEC2B7v160006ENS_18__default_init_tagE, symObjAddr: 0x1CD4, symBinAddr: 0x100004138, symSize: 0x2C }
  - { offsetInCU: 0xDA2A, offset: 0xDA2A, size: 0x8, addend: 0x0, symName: __ZNSt3__19allocatorIcEC2B7v160006Ev, symObjAddr: 0x1D00, symBinAddr: 0x100004164, symSize: 0x2C }
  - { offsetInCU: 0xDA54, offset: 0xDA54, size: 0x8, addend: 0x0, symName: __ZNSt3__116__non_trivial_ifILb1ENS_9allocatorIcEEEC2B7v160006Ev, symObjAddr: 0x1D2C, symBinAddr: 0x100004190, symSize: 0x14 }
  - { offsetInCU: 0xDA7E, offset: 0xDA7E, size: 0x8, addend: 0x0, symName: __ZNSt3__16vectorINS_4pairIxxEENS_9allocatorIS2_EEEC2Em, symObjAddr: 0x1D40, symBinAddr: 0x1000041A4, symSize: 0xE0 }
  - { offsetInCU: 0xDAD4, offset: 0xDAD4, size: 0x8, addend: 0x0, symName: __ZNSt3__117__compressed_pairIPNS_4pairIxxEENS_9allocatorIS2_EEEC1B7v160006IDnNS_18__default_init_tagEEEOT_OT0_, symObjAddr: 0x1E20, symBinAddr: 0x100004284, symSize: 0x3C }
  - { offsetInCU: 0xDB2C, offset: 0xDB2C, size: 0x8, addend: 0x0, symName: __ZNSt3__16vectorINS_4pairIxxEENS_9allocatorIS2_EEE16__destroy_vectorC1ERS5_, symObjAddr: 0x1E9C, symBinAddr: 0x100004300, symSize: 0x34 }
  - { offsetInCU: 0xDB65, offset: 0xDB65, size: 0x8, addend: 0x0, symName: __ZNSt3__16vectorINS_4pairIxxEENS_9allocatorIS2_EEE11__vallocateB7v160006Em, symObjAddr: 0x1EE0, symBinAddr: 0x100004344, symSize: 0xAC }
  - { offsetInCU: 0xDBA9, offset: 0xDBA9, size: 0x8, addend: 0x0, symName: __ZNSt3__16vectorINS_4pairIxxEENS_9allocatorIS2_EEE18__construct_at_endEm, symObjAddr: 0x1F8C, symBinAddr: 0x1000043F0, symSize: 0xC8 }
  - { offsetInCU: 0xDC1B, offset: 0xDC1B, size: 0x8, addend: 0x0, symName: __ZNSt3__128__exception_guard_exceptionsINS_6vectorINS_4pairIxxEENS_9allocatorIS3_EEE16__destroy_vectorEE10__completeB7v160006Ev, symObjAddr: 0x2054, symBinAddr: 0x1000044B8, symSize: 0x1C }
  - { offsetInCU: 0xDC41, offset: 0xDC41, size: 0x8, addend: 0x0, symName: __ZNSt3__128__exception_guard_exceptionsINS_6vectorINS_4pairIxxEENS_9allocatorIS3_EEE16__destroy_vectorEED1B7v160006Ev, symObjAddr: 0x2070, symBinAddr: 0x1000044D4, symSize: 0x2C }
  - { offsetInCU: 0xDC6B, offset: 0xDC6B, size: 0x8, addend: 0x0, symName: __ZNSt3__117__compressed_pairIPNS_4pairIxxEENS_9allocatorIS2_EEEC2B7v160006IDnNS_18__default_init_tagEEEOT_OT0_, symObjAddr: 0x209C, symBinAddr: 0x100004500, symSize: 0x40 }
  - { offsetInCU: 0xDCC3, offset: 0xDCC3, size: 0x8, addend: 0x0, symName: __ZNSt3__122__compressed_pair_elemIPNS_4pairIxxEELi0ELb0EEC2B7v160006IDnvEEOT_, symObjAddr: 0x20DC, symBinAddr: 0x100004540, symSize: 0x1C }
  - { offsetInCU: 0xDD05, offset: 0xDD05, size: 0x8, addend: 0x0, symName: __ZNSt3__122__compressed_pair_elemINS_9allocatorINS_4pairIxxEEEELi1ELb1EEC2B7v160006ENS_18__default_init_tagE, symObjAddr: 0x20F8, symBinAddr: 0x10000455C, symSize: 0x2C }
  - { offsetInCU: 0xDD39, offset: 0xDD39, size: 0x8, addend: 0x0, symName: __ZNSt3__19allocatorINS_4pairIxxEEEC2B7v160006Ev, symObjAddr: 0x2124, symBinAddr: 0x100004588, symSize: 0x2C }
  - { offsetInCU: 0xDD63, offset: 0xDD63, size: 0x8, addend: 0x0, symName: __ZNSt3__116__non_trivial_ifILb1ENS_9allocatorINS_4pairIxxEEEEEC2B7v160006Ev, symObjAddr: 0x2150, symBinAddr: 0x1000045B4, symSize: 0x14 }
  - { offsetInCU: 0xDD8D, offset: 0xDD8D, size: 0x8, addend: 0x0, symName: __ZNSt3__128__exception_guard_exceptionsINS_6vectorINS_4pairIxxEENS_9allocatorIS3_EEE16__destroy_vectorEEC1B7v160006ES7_, symObjAddr: 0x2164, symBinAddr: 0x1000045C8, symSize: 0x34 }
  - { offsetInCU: 0xDDC5, offset: 0xDDC5, size: 0x8, addend: 0x0, symName: __ZNSt3__128__exception_guard_exceptionsINS_6vectorINS_4pairIxxEENS_9allocatorIS3_EEE16__destroy_vectorEEC2B7v160006ES7_, symObjAddr: 0x2198, symBinAddr: 0x1000045FC, symSize: 0x24 }
  - { offsetInCU: 0xDDFD, offset: 0xDDFD, size: 0x8, addend: 0x0, symName: __ZNSt3__16vectorINS_4pairIxxEENS_9allocatorIS2_EEE16__destroy_vectorC2ERS5_, symObjAddr: 0x21BC, symBinAddr: 0x100004620, symSize: 0x20 }
  - { offsetInCU: 0xDE36, offset: 0xDE36, size: 0x8, addend: 0x0, symName: __ZNKSt3__16vectorINS_4pairIxxEENS_9allocatorIS2_EEE8max_sizeEv, symObjAddr: 0x21DC, symBinAddr: 0x100004640, symSize: 0x60 }
  - { offsetInCU: 0xDE5E, offset: 0xDE5E, size: 0x8, addend: 0x0, symName: __ZNKSt3__16vectorINS_4pairIxxEENS_9allocatorIS2_EEE20__throw_length_errorB7v160006Ev, symObjAddr: 0x223C, symBinAddr: 0x1000046A0, symSize: 0x1C }
  - { offsetInCU: 0xDE84, offset: 0xDE84, size: 0x8, addend: 0x0, symName: __ZNSt3__16vectorINS_4pairIxxEENS_9allocatorIS2_EEE7__allocB7v160006Ev, symObjAddr: 0x2294, symBinAddr: 0x1000046F8, symSize: 0x28 }
  - { offsetInCU: 0xDEAA, offset: 0xDEAA, size: 0x8, addend: 0x0, symName: __ZNSt3__16vectorINS_4pairIxxEENS_9allocatorIS2_EEE9__end_capB7v160006Ev, symObjAddr: 0x22BC, symBinAddr: 0x100004720, symSize: 0x28 }
  - { offsetInCU: 0xDED0, offset: 0xDED0, size: 0x8, addend: 0x0, symName: __ZNKSt3__16vectorINS_4pairIxxEENS_9allocatorIS2_EEE14__annotate_newB7v160006Em, symObjAddr: 0x22E4, symBinAddr: 0x100004748, symSize: 0xAC }
  - { offsetInCU: 0xDF0F, offset: 0xDF0F, size: 0x8, addend: 0x0, symName: __ZNSt3__116allocator_traitsINS_9allocatorINS_4pairIxxEEEEE8max_sizeB7v160006IS4_vvEEmRKS4_, symObjAddr: 0x23BC, symBinAddr: 0x100004820, symSize: 0x28 }
  - { offsetInCU: 0xDF3A, offset: 0xDF3A, size: 0x8, addend: 0x0, symName: __ZNKSt3__16vectorINS_4pairIxxEENS_9allocatorIS2_EEE7__allocB7v160006Ev, symObjAddr: 0x23E4, symBinAddr: 0x100004848, symSize: 0x28 }
  - { offsetInCU: 0xDF60, offset: 0xDF60, size: 0x8, addend: 0x0, symName: __ZNSt3__114numeric_limitsIlE3maxB7v160006Ev, symObjAddr: 0x240C, symBinAddr: 0x100004870, symSize: 0x14 }
  - { offsetInCU: 0xDF89, offset: 0xDF89, size: 0x8, addend: 0x0, symName: __ZNKSt3__16__lessImmEclB7v160006ERKmS3_, symObjAddr: 0x2474, symBinAddr: 0x1000048D8, symSize: 0x34 }
  - { offsetInCU: 0xDFCB, offset: 0xDFCB, size: 0x8, addend: 0x0, symName: __ZNKSt3__117__compressed_pairIPNS_4pairIxxEENS_9allocatorIS2_EEE6secondB7v160006Ev, symObjAddr: 0x24A8, symBinAddr: 0x10000490C, symSize: 0x24 }
  - { offsetInCU: 0xDFF1, offset: 0xDFF1, size: 0x8, addend: 0x0, symName: __ZNKSt3__122__compressed_pair_elemINS_9allocatorINS_4pairIxxEEEELi1ELb1EE5__getB7v160006Ev, symObjAddr: 0x24CC, symBinAddr: 0x100004930, symSize: 0x14 }
  - { offsetInCU: 0xE017, offset: 0xE017, size: 0x8, addend: 0x0, symName: __ZNSt3__123__libcpp_numeric_limitsIlLb1EE3maxB7v160006Ev, symObjAddr: 0x24E0, symBinAddr: 0x100004944, symSize: 0x8 }
  - { offsetInCU: 0xE02B, offset: 0xE02B, size: 0x8, addend: 0x0, symName: __ZNSt3__19allocatorINS_4pairIxxEEE17allocate_at_leastB7v160006Em, symObjAddr: 0x2524, symBinAddr: 0x100004988, symSize: 0x40 }
  - { offsetInCU: 0xE05F, offset: 0xE05F, size: 0x8, addend: 0x0, symName: __ZNSt3__19allocatorINS_4pairIxxEEE8allocateB7v160006Em, symObjAddr: 0x2564, symBinAddr: 0x1000049C8, symSize: 0x58 }
  - { offsetInCU: 0xE093, offset: 0xE093, size: 0x8, addend: 0x0, symName: __ZNSt3__117__compressed_pairIPNS_4pairIxxEENS_9allocatorIS2_EEE6secondB7v160006Ev, symObjAddr: 0x25BC, symBinAddr: 0x100004A20, symSize: 0x24 }
  - { offsetInCU: 0xE0B9, offset: 0xE0B9, size: 0x8, addend: 0x0, symName: __ZNSt3__122__compressed_pair_elemINS_9allocatorINS_4pairIxxEEEELi1ELb1EE5__getB7v160006Ev, symObjAddr: 0x25E0, symBinAddr: 0x100004A44, symSize: 0x14 }
  - { offsetInCU: 0xE0DF, offset: 0xE0DF, size: 0x8, addend: 0x0, symName: __ZNSt3__117__compressed_pairIPNS_4pairIxxEENS_9allocatorIS2_EEE5firstB7v160006Ev, symObjAddr: 0x25F4, symBinAddr: 0x100004A58, symSize: 0x24 }
  - { offsetInCU: 0xE105, offset: 0xE105, size: 0x8, addend: 0x0, symName: __ZNSt3__122__compressed_pair_elemIPNS_4pairIxxEELi0ELb0EE5__getB7v160006Ev, symObjAddr: 0x2618, symBinAddr: 0x100004A7C, symSize: 0x14 }
  - { offsetInCU: 0xE12B, offset: 0xE12B, size: 0x8, addend: 0x0, symName: __ZNKSt3__16vectorINS_4pairIxxEENS_9allocatorIS2_EEE31__annotate_contiguous_containerB7v160006EPKvS7_S7_S7_, symObjAddr: 0x262C, symBinAddr: 0x100004A90, symSize: 0x20 }
  - { offsetInCU: 0xE17D, offset: 0xE17D, size: 0x8, addend: 0x0, symName: __ZNKSt3__16vectorINS_4pairIxxEENS_9allocatorIS2_EEE4dataB7v160006Ev, symObjAddr: 0x264C, symBinAddr: 0x100004AB0, symSize: 0x28 }
  - { offsetInCU: 0xE1A3, offset: 0xE1A3, size: 0x8, addend: 0x0, symName: __ZNKSt3__16vectorINS_4pairIxxEENS_9allocatorIS2_EEE8capacityB7v160006Ev, symObjAddr: 0x2674, symBinAddr: 0x100004AD8, symSize: 0x40 }
  - { offsetInCU: 0xE1C9, offset: 0xE1C9, size: 0x8, addend: 0x0, symName: __ZNKSt3__16vectorINS_4pairIxxEENS_9allocatorIS2_EEE9__end_capB7v160006Ev, symObjAddr: 0x26C8, symBinAddr: 0x100004B2C, symSize: 0x28 }
  - { offsetInCU: 0xE1EF, offset: 0xE1EF, size: 0x8, addend: 0x0, symName: __ZNKSt3__117__compressed_pairIPNS_4pairIxxEENS_9allocatorIS2_EEE5firstB7v160006Ev, symObjAddr: 0x26F0, symBinAddr: 0x100004B54, symSize: 0x24 }
  - { offsetInCU: 0xE215, offset: 0xE215, size: 0x8, addend: 0x0, symName: __ZNKSt3__122__compressed_pair_elemIPNS_4pairIxxEELi0ELb0EE5__getB7v160006Ev, symObjAddr: 0x2714, symBinAddr: 0x100004B78, symSize: 0x14 }
  - { offsetInCU: 0xE255, offset: 0xE255, size: 0x8, addend: 0x0, symName: __ZNSt3__16vectorINS_4pairIxxEENS_9allocatorIS2_EEE21_ConstructTransactionC1B7v160006ERS5_m, symObjAddr: 0x2728, symBinAddr: 0x100004B8C, symSize: 0x3C }
  - { offsetInCU: 0xE29D, offset: 0xE29D, size: 0x8, addend: 0x0, symName: __ZNSt3__116allocator_traitsINS_9allocatorINS_4pairIxxEEEEE9constructB7v160006IS3_JEvvEEvRS4_PT_DpOT0_, symObjAddr: 0x2764, symBinAddr: 0x100004BC8, symSize: 0x28 }
  - { offsetInCU: 0xE2DC, offset: 0xE2DC, size: 0x8, addend: 0x0, symName: __ZNSt3__16vectorINS_4pairIxxEENS_9allocatorIS2_EEE21_ConstructTransactionD1B7v160006Ev, symObjAddr: 0x278C, symBinAddr: 0x100004BF0, symSize: 0x2C }
  - { offsetInCU: 0xE306, offset: 0xE306, size: 0x8, addend: 0x0, symName: __ZNSt3__16vectorINS_4pairIxxEENS_9allocatorIS2_EEE21_ConstructTransactionC2B7v160006ERS5_m, symObjAddr: 0x27B8, symBinAddr: 0x100004C1C, symSize: 0x44 }
  - { offsetInCU: 0xE34E, offset: 0xE34E, size: 0x8, addend: 0x0, symName: __ZNSt3__14pairIxxEC1B7v160006ILb1ELPv0EEEv, symObjAddr: 0x2830, symBinAddr: 0x100004C94, symSize: 0x2C }
  - { offsetInCU: 0xE388, offset: 0xE388, size: 0x8, addend: 0x0, symName: __ZNSt3__14pairIxxEC2B7v160006ILb1ELPv0EEEv, symObjAddr: 0x285C, symBinAddr: 0x100004CC0, symSize: 0x1C }
  - { offsetInCU: 0xE3C2, offset: 0xE3C2, size: 0x8, addend: 0x0, symName: __ZNSt3__16vectorINS_4pairIxxEENS_9allocatorIS2_EEE21_ConstructTransactionD2B7v160006Ev, symObjAddr: 0x2878, symBinAddr: 0x100004CDC, symSize: 0x20 }
  - { offsetInCU: 0xE3EC, offset: 0xE3EC, size: 0x8, addend: 0x0, symName: __ZNSt3__128__exception_guard_exceptionsINS_6vectorINS_4pairIxxEENS_9allocatorIS3_EEE16__destroy_vectorEED2B7v160006Ev, symObjAddr: 0x2898, symBinAddr: 0x100004CFC, symSize: 0x50 }
  - { offsetInCU: 0xE416, offset: 0xE416, size: 0x8, addend: 0x0, symName: __ZNSt3__16vectorINS_4pairIxxEENS_9allocatorIS2_EEE16__destroy_vectorclB7v160006Ev, symObjAddr: 0x28E8, symBinAddr: 0x100004D4C, symSize: 0x9C }
  - { offsetInCU: 0xE43C, offset: 0xE43C, size: 0x8, addend: 0x0, symName: __ZNKSt3__16vectorINS_4pairIxxEENS_9allocatorIS2_EEE17__annotate_deleteB7v160006Ev, symObjAddr: 0x2984, symBinAddr: 0x100004DE8, symSize: 0xB8 }
  - { offsetInCU: 0xE462, offset: 0xE462, size: 0x8, addend: 0x0, symName: __ZNSt3__16vectorINS_4pairIxxEENS_9allocatorIS2_EEE7__clearB7v160006Ev, symObjAddr: 0x2A4C, symBinAddr: 0x100004EB0, symSize: 0x28 }
  - { offsetInCU: 0xE488, offset: 0xE488, size: 0x8, addend: 0x0, symName: __ZNSt3__116allocator_traitsINS_9allocatorINS_4pairIxxEEEEE10deallocateB7v160006ERS4_PS3_m, symObjAddr: 0x2A74, symBinAddr: 0x100004ED8, symSize: 0x34 }
  - { offsetInCU: 0xE4CA, offset: 0xE4CA, size: 0x8, addend: 0x0, symName: __ZNKSt3__16vectorINS_4pairIxxEENS_9allocatorIS2_EEE4sizeB7v160006Ev, symObjAddr: 0x2AA8, symBinAddr: 0x100004F0C, symSize: 0x28 }
  - { offsetInCU: 0xE4F0, offset: 0xE4F0, size: 0x8, addend: 0x0, symName: __ZNSt3__16vectorINS_4pairIxxEENS_9allocatorIS2_EEE22__base_destruct_at_endB7v160006EPS2_, symObjAddr: 0x2AD0, symBinAddr: 0x100004F34, symSize: 0x8C }
  - { offsetInCU: 0xE534, offset: 0xE534, size: 0x8, addend: 0x0, symName: __ZNSt3__116allocator_traitsINS_9allocatorINS_4pairIxxEEEEE7destroyB7v160006IS3_vvEEvRS4_PT_, symObjAddr: 0x2B5C, symBinAddr: 0x100004FC0, symSize: 0x28 }
  - { offsetInCU: 0xE56E, offset: 0xE56E, size: 0x8, addend: 0x0, symName: __ZNSt3__19allocatorINS_4pairIxxEEE10deallocateB7v160006EPS2_m, symObjAddr: 0x2BB8, symBinAddr: 0x10000501C, symSize: 0x40 }
  - { offsetInCU: 0xE5C0, offset: 0xE5C0, size: 0x8, addend: 0x0, symName: __ZNSt3__116_UnwrapAlgPolicyIRNS_6__lessINS_4pairIxxEES3_EEE10__get_compB7v160006ES5_, symObjAddr: 0x2EC0, symBinAddr: 0x100005324, symSize: 0x14 }
  - { offsetInCU: 0xE5E3, offset: 0xE5E3, size: 0x8, addend: 0x0, symName: __ZNKSt3__16__lessINS_4pairIxxEES2_EclB7v160006ERKS2_S5_, symObjAddr: 0x35C0, symBinAddr: 0x100005A24, symSize: 0x50 }
  - { offsetInCU: 0xE625, offset: 0xE625, size: 0x8, addend: 0x0, symName: __ZNSt3__18_IterOpsINS_17_ClassicAlgPolicyEE9iter_swapB7v160006IRPNS_4pairIxxEES7_EEvOT_OT0_, symObjAddr: 0x3610, symBinAddr: 0x100005A74, symSize: 0x34 }
  - { offsetInCU: 0xE678, offset: 0xE678, size: 0x8, addend: 0x0, symName: __ZNSt3__120_CmpUnspecifiedParamC1B7v160006EMS0_i, symObjAddr: 0x3E58, symBinAddr: 0x1000062BC, symSize: 0x34 }
  - { offsetInCU: 0xE6EF, offset: 0xE6EF, size: 0x8, addend: 0x0, symName: __ZNKSt3__117__synth_three_wayMUlTyTyRKT_RKT0_E_clIxxEEDaS2_S5_, symObjAddr: 0x3E8C, symBinAddr: 0x1000062F0, symSize: 0x60 }
  - { offsetInCU: 0xE743, offset: 0xE743, size: 0x8, addend: 0x0, symName: __ZNSt3__120_CmpUnspecifiedParamC2B7v160006EMS0_i, symObjAddr: 0x3F10, symBinAddr: 0x100006374, symSize: 0x18 }
  - { offsetInCU: 0xE777, offset: 0xE777, size: 0x8, addend: 0x0, symName: __ZNSt3__14pairIxxE4swapB7v160006ERS1_, symObjAddr: 0x3F80, symBinAddr: 0x1000063E4, symSize: 0x44 }
  - { offsetInCU: 0xE7AC, offset: 0xE7AC, size: 0x8, addend: 0x0, symName: __ZNSt3__18_IterOpsINS_17_ClassicAlgPolicyEE11__iter_moveB7v160006IRPNS_4pairIxxEEEENS_9enable_ifIXsr12is_referenceIDTdeclsr3stdE7declvalIRT_EEEEE5valueEDTclsr3stdE4movedeclsr3stdE7declvalISA_EEEEE4typeEOS9_, symObjAddr: 0x40E4, symBinAddr: 0x100006548, symSize: 0x28 }
  - { offsetInCU: 0xE7D8, offset: 0xE7D8, size: 0x8, addend: 0x0, symName: __ZNSt3__14pairIxxEaSB7v160006EOS1_, symObjAddr: 0x410C, symBinAddr: 0x100006570, symSize: 0x30 }
  - { offsetInCU: 0xE80D, offset: 0xE80D, size: 0x8, addend: 0x0, symName: __ZNSt3__18_IterOpsINS_17_ClassicAlgPolicyEE25__validate_iter_referenceB7v160006IRPNS_4pairIxxEEEEvv, symObjAddr: 0x413C, symBinAddr: 0x1000065A0, symSize: 0x4 }
  - { offsetInCU: 0xE82B, offset: 0xE82B, size: 0x8, addend: 0x0, symName: __ZNSt3__18_IterOpsINS_17_ClassicAlgPolicyEE4nextB7v160006IPNS_4pairIxxEEEET_S7_S7_, symObjAddr: 0x4140, symBinAddr: 0x1000065A4, symSize: 0x18 }
  - { offsetInCU: 0xE861, offset: 0xE861, size: 0x8, addend: 0x0, symName: __ZNSt3__118__unwrap_iter_implINS_11__wrap_iterIPNS_4pairIxxEEEELb1EE8__unwrapB7v160006ES5_, symObjAddr: 0x4A0C, symBinAddr: 0x100006E70, symSize: 0x28 }
  - { offsetInCU: 0xE88F, offset: 0xE88F, size: 0x8, addend: 0x0, symName: __ZNSt3__119__to_address_helperINS_11__wrap_iterIPNS_4pairIxxEEEEvE6__callB7v160006ERKS5_, symObjAddr: 0x4A58, symBinAddr: 0x100006EBC, symSize: 0x30 }
  - { offsetInCU: 0xE8B2, offset: 0xE8B2, size: 0x8, addend: 0x0, symName: __ZNSt3__114pointer_traitsINS_11__wrap_iterIPNS_4pairIxxEEEEE10to_addressB7v160006ES5_, symObjAddr: 0x4A88, symBinAddr: 0x100006EEC, symSize: 0x2C }
  - { offsetInCU: 0xE8D6, offset: 0xE8D6, size: 0x8, addend: 0x0, symName: __ZNKSt3__111__wrap_iterIPNS_4pairIxxEEE4baseB7v160006Ev, symObjAddr: 0x4AB4, symBinAddr: 0x100006F18, symSize: 0x18 }
  - { offsetInCU: 0xE8FC, offset: 0xE8FC, size: 0x8, addend: 0x0, symName: __ZNSt3__16vectorINS_4pairIxxEENS_9allocatorIS2_EEE11__make_iterB7v160006EPS2_, symObjAddr: 0x4ACC, symBinAddr: 0x100006F30, symSize: 0x34 }
  - { offsetInCU: 0xE931, offset: 0xE931, size: 0x8, addend: 0x0, symName: __ZNSt3__111__wrap_iterIPNS_4pairIxxEEEC1B7v160006EPKvS3_, symObjAddr: 0x4B00, symBinAddr: 0x100006F64, symSize: 0x3C }
  - { offsetInCU: 0xE977, offset: 0xE977, size: 0x8, addend: 0x0, symName: __ZNSt3__111__wrap_iterIPNS_4pairIxxEEEC2B7v160006EPKvS3_, symObjAddr: 0x4B3C, symBinAddr: 0x100006FA0, symSize: 0x24 }
  - { offsetInCU: 0xE9C8, offset: 0xE9C8, size: 0x8, addend: 0x0, symName: __ZNKSt3__16__lessIxxEclB7v160006ERKxS3_, symObjAddr: 0x4BB4, symBinAddr: 0x100007018, symSize: 0x34 }
  - { offsetInCU: 0xEA0A, offset: 0xEA0A, size: 0x8, addend: 0x0, symName: __ZNSt3__16vectorINS_4pairIxxEENS_9allocatorIS2_EEED2B7v160006Ev, symObjAddr: 0x4BE8, symBinAddr: 0x10000704C, symSize: 0x44 }
  - { offsetInCU: 0xEA4F, offset: 0xEA4F, size: 0x8, addend: 0x0, symName: __ZNKSt3__113basic_ostreamIcNS_11char_traitsIcEEE6sentrycvbB7v160006Ev, symObjAddr: 0x4E18, symBinAddr: 0x10000727C, symSize: 0x1C }
  - { offsetInCU: 0xEA75, offset: 0xEA75, size: 0x8, addend: 0x0, symName: __ZNSt3__119ostreambuf_iteratorIcNS_11char_traitsIcEEEC1B7v160006ERNS_13basic_ostreamIcS2_EE, symObjAddr: 0x5074, symBinAddr: 0x1000074D8, symSize: 0x34 }
  - { offsetInCU: 0xEAAD, offset: 0xEAAD, size: 0x8, addend: 0x0, symName: __ZNKSt3__18ios_base5flagsB7v160006Ev, symObjAddr: 0x50A8, symBinAddr: 0x10000750C, symSize: 0x18 }
  - { offsetInCU: 0xEAD5, offset: 0xEAD5, size: 0x8, addend: 0x0, symName: __ZNKSt3__19basic_iosIcNS_11char_traitsIcEEE4fillB7v160006Ev, symObjAddr: 0x50C0, symBinAddr: 0x100007524, symSize: 0x64 }
  - { offsetInCU: 0xEAFD, offset: 0xEAFD, size: 0x8, addend: 0x0, symName: __ZNKSt3__119ostreambuf_iteratorIcNS_11char_traitsIcEEE6failedB7v160006Ev, symObjAddr: 0x5124, symBinAddr: 0x100007588, symSize: 0x24 }
  - { offsetInCU: 0xEB23, offset: 0xEB23, size: 0x8, addend: 0x0, symName: __ZNSt3__19basic_iosIcNS_11char_traitsIcEEE8setstateB7v160006Ej, symObjAddr: 0x5148, symBinAddr: 0x1000075AC, symSize: 0x2C }
  - { offsetInCU: 0xEB58, offset: 0xEB58, size: 0x8, addend: 0x0, symName: __ZNKSt3__18ios_base5widthB7v160006Ev, symObjAddr: 0x5174, symBinAddr: 0x1000075D8, symSize: 0x18 }
  - { offsetInCU: 0xEB80, offset: 0xEB80, size: 0x8, addend: 0x0, symName: __ZNSt3__115basic_streambufIcNS_11char_traitsIcEEE5sputnB7v160006EPKcl, symObjAddr: 0x518C, symBinAddr: 0x1000075F0, symSize: 0x3C }
  - { offsetInCU: 0xEBC2, offset: 0xEBC2, size: 0x8, addend: 0x0, symName: __ZNSt3__112basic_stringIcNS_11char_traitsIcEENS_9allocatorIcEEEC1B7v160006Emc, symObjAddr: 0x51C8, symBinAddr: 0x10000762C, symSize: 0x3C }
  - { offsetInCU: 0xEC0A, offset: 0xEC0A, size: 0x8, addend: 0x0, symName: __ZNSt3__112basic_stringIcNS_11char_traitsIcEENS_9allocatorIcEEE4dataB7v160006Ev, symObjAddr: 0x5204, symBinAddr: 0x100007668, symSize: 0x28 }
  - { offsetInCU: 0xEC30, offset: 0xEC30, size: 0x8, addend: 0x0, symName: __ZNSt3__18ios_base5widthB7v160006El, symObjAddr: 0x522C, symBinAddr: 0x100007690, symSize: 0x2C }
  - { offsetInCU: 0xEC76, offset: 0xEC76, size: 0x8, addend: 0x0, symName: __ZNSt3__112basic_stringIcNS_11char_traitsIcEENS_9allocatorIcEEEC2B7v160006Emc, symObjAddr: 0x5258, symBinAddr: 0x1000076BC, symSize: 0x54 }
  - { offsetInCU: 0xECBE, offset: 0xECBE, size: 0x8, addend: 0x0, symName: __ZNSt3__119ostreambuf_iteratorIcNS_11char_traitsIcEEEC2B7v160006ERNS_13basic_ostreamIcS2_EE, symObjAddr: 0x52AC, symBinAddr: 0x100007710, symSize: 0x54 }
  - { offsetInCU: 0xECF6, offset: 0xECF6, size: 0x8, addend: 0x0, symName: __ZNKSt3__19basic_iosIcNS_11char_traitsIcEEE5rdbufB7v160006Ev, symObjAddr: 0x5300, symBinAddr: 0x100007764, symSize: 0x24 }
  - { offsetInCU: 0xED1E, offset: 0xED1E, size: 0x8, addend: 0x0, symName: __ZNKSt3__18ios_base5rdbufB7v160006Ev, symObjAddr: 0x5324, symBinAddr: 0x100007788, symSize: 0x18 }
  - { offsetInCU: 0xED44, offset: 0xED44, size: 0x8, addend: 0x0, symName: __ZNSt3__111char_traitsIcE11eq_int_typeEii, symObjAddr: 0x533C, symBinAddr: 0x1000077A0, symSize: 0x28 }
  - { offsetInCU: 0xED75, offset: 0xED75, size: 0x8, addend: 0x0, symName: __ZNSt3__111char_traitsIcE3eofEv, symObjAddr: 0x5364, symBinAddr: 0x1000077C8, symSize: 0x8 }
  - { offsetInCU: 0xED89, offset: 0xED89, size: 0x8, addend: 0x0, symName: __ZNKSt3__19basic_iosIcNS_11char_traitsIcEEE5widenB7v160006Ec, symObjAddr: 0x536C, symBinAddr: 0x1000077D0, symSize: 0x84 }
  - { offsetInCU: 0xEDFE, offset: 0xEDFE, size: 0x8, addend: 0x0, symName: __ZNKSt3__15ctypeIcE5widenB7v160006Ec, symObjAddr: 0x541C, symBinAddr: 0x100007880, symSize: 0x38 }
  - { offsetInCU: 0xEE33, offset: 0xEE33, size: 0x8, addend: 0x0, symName: __ZNSt3__18ios_base8setstateB7v160006Ej, symObjAddr: 0x5454, symBinAddr: 0x1000078B8, symSize: 0x34 }
...
